

Microchip MPLAB XC8 Assembler V3.10 build 20250813170317 
                                                                                               Wed Jun 24 08:39:19 2026

Microchip MPLAB XC8 C Compiler v3.10 (Free license) build 20250813170317 Og1 
     1                           	processor	18F4550
     2                           	fnconf	rparam,??,?,0
     3                           	pagewidth 120
     4                           	opt	flic
     5                           	psect	idataCOMRAM,global,class=CODE,space=0,delta=1,noexec
     6                           	psect	smallconst,global,reloc=2,class=SMALLCONST,space=0,delta=1,noexec
     7                           	psect	cinit,global,reloc=2,class=CODE,space=0,delta=1
     8                           	psect	bssCOMRAM,global,class=COMRAM,space=1,delta=1,lowdata,noexec
     9                           	psect	dataCOMRAM,global,class=COMRAM,space=1,delta=1,lowdata,noexec
    10                           	psect	cstackCOMRAM,global,class=COMRAM,space=1,delta=1,lowdata,noexec
    11                           	psect	text0,global,reloc=2,class=CODE,space=0,delta=1
    12                           	psect	text1,global,reloc=2,class=CODE,space=0,delta=1
    13                           	psect	text2,global,reloc=2,class=CODE,space=0,delta=1
    14                           	psect	text3,global,reloc=2,class=CODE,space=0,delta=1
    15                           	psect	text4,global,reloc=2,class=CODE,space=0,delta=1
    16                           	psect	text5,global,reloc=2,class=CODE,space=0,delta=1
    17                           	psect	text6,global,reloc=2,class=CODE,space=0,delta=1
    18                           	psect	text7,global,reloc=2,class=CODE,space=0,delta=1
    19                           	psect	text8,global,reloc=2,class=CODE,space=0,delta=1
    20                           	psect	text9,global,reloc=2,class=CODE,space=0,delta=1
    21                           	psect	intcodelo,global,reloc=2,class=CODE,space=0,delta=1
    22                           	psect	intcode,global,reloc=2,class=CODE,space=0,delta=1
    23                           	psect	intcode_body,global,reloc=2,class=CODE,space=0,delta=1
    24                           	psect	intsave_regs,global,class=BIGRAM,space=1,delta=1,noexec
    25                           	psect	rparam,global,class=COMRAM,space=1,delta=1,noexec
    26                           	psect	idloc,global,abs,ovrld,class=IDLOC,space=5,delta=1,noexec
    27                           	psect	config,global,abs,ovrld,class=CONFIG,space=4,delta=1,noexec
    28                           	dabs	1,0x1,1
    29   000000                     
    30                           ; Version 2.40
    31                           ; Generated 17/11/2021 GMT
    32                           ; 
    33                           ; Copyright © 2021, Microchip Technology Inc. and its subsidiaries ("Microchip")
    34                           ; All rights reserved.
    35                           ; 
    36                           ; This software is developed by Microchip Technology Inc. and its subsidiaries ("Microch
      +                          ip").
    37                           ; 
    38                           ; Redistribution and use in source and binary forms, with or without modification, are
    39                           ; permitted provided that the following conditions are met:
    40                           ; 
    41                           ;     1. Redistributions of source code must retain the above copyright notice, this lis
      +                          t of
    42                           ;        conditions and the following disclaimer.
    43                           ; 
    44                           ;     2. Redistributions in binary form must reproduce the above copyright notice, this 
      +                          list
    45                           ;        of conditions and the following disclaimer in the documentation and/or other
    46                           ;        materials provided with the distribution. Publication is not required when
    47                           ;        this file is used in an embedded application.
    48                           ; 
    49                           ;     3. Microchip's name may not be used to endorse or promote products derived from th
      +                          is
    50                           ;        software without specific prior written permission.
    51                           ; 
    52                           ; THIS SOFTWARE IS PROVIDED BY MICROCHIP "AS IS" AND ANY EXPRESS OR IMPLIED WARRANTIES,
    53                           ; INCLUDING, BUT NOT LIMITED TO, THE IMPLIED WARRANTIES OF MERCHANTABILITY AND FITNESS F
      +                          OR
    54                           ; PURPOSE ARE DISCLAIMED.  IN NO EVENT SHALL MICROCHIP BE LIABLE FOR ANY DIRECT, INDIREC
      +                          T,
    55                           ; INCIDENTAL, SPECIAL, EXEMPLARY, OR CONSEQUENTIAL DAMAGES (INCLUDING BUT NOT LIMITED TO
    56                           ; PROCUREMENT OF SUBSTITUTE GOODS OR SERVICES; LOSS OF USE, DATA OR PROFITS; OR BUSINESS
    57                           ; INTERRUPTION) HOWSOEVER CAUSED AND ON ANY THEORY OF LIABILITY, WHETHER IN CONTRACT, ST
      +                          RICT
    58                           ; LIABILITY, OR TORT (INCLUDING NEGLIGENCE OR OTHERWISE) ARISING IN ANY WAY OUT OF THE U
      +                          SE OF
    59                           ; THIS SOFTWARE, EVEN IF ADVISED OF THE POSSIBILITY OF SUCH DAMAGE.
    60                           ; 
    61                           ; 
    62                           ; Code-generator required, PIC18F4550 Definitions
    63                           ; 
    64                           ; SFR Addresses
    65   000FE0                     bsr             equ	4064
    66   000FE9                     fsr0            equ	4073
    67   000FEA                     fsr0h           equ	4074
    68   000FE9                     fsr0l           equ	4073
    69   000FE1                     fsr1            equ	4065
    70   000FE2                     fsr1h           equ	4066
    71   000FE1                     fsr1l           equ	4065
    72   000FD9                     fsr2            equ	4057
    73   000FDA                     fsr2h           equ	4058
    74   000FD9                     fsr2l           equ	4057
    75   000FEF                     indf0           equ	4079
    76   000FE7                     indf1           equ	4071
    77   000FDF                     indf2           equ	4063
    78   000FF2                     intcon          equ	4082
    79   000000                     nvmcon          equ	0
    80   000FF9                     pcl             equ	4089
    81   000FFA                     pclath          equ	4090
    82   000FFB                     pclatu          equ	4091
    83   000FEB                     plusw0          equ	4075
    84   000FE3                     plusw1          equ	4067
    85   000FDB                     plusw2          equ	4059
    86   000FED                     postdec0        equ	4077
    87   000FE5                     postdec1        equ	4069
    88   000FDD                     postdec2        equ	4061
    89   000FEE                     postinc0        equ	4078
    90   000FE6                     postinc1        equ	4070
    91   000FDE                     postinc2        equ	4062
    92   000FEC                     preinc0         equ	4076
    93   000FE4                     preinc1         equ	4068
    94   000FDC                     preinc2         equ	4060
    95   000FF3                     prod            equ	4083
    96   000FF4                     prodh           equ	4084
    97   000FF3                     prodl           equ	4083
    98   000FD8                     status          equ	4056
    99   000FF5                     tablat          equ	4085
   100   000FF6                     tblptr          equ	4086
   101   000FF7                     tblptrh         equ	4087
   102   000FF6                     tblptrl         equ	4086
   103   000FF8                     tblptru         equ	4088
   104   000FFD                     tosl            equ	4093
   105   000FE8                     wreg            equ	4072
   106   000F62                     SPPDATA         equ	3938	;# 
   107   000F63                     SPPCFG          equ	3939	;# 
   108   000F64                     SPPEPS          equ	3940	;# 
   109   000F65                     SPPCON          equ	3941	;# 
   110   000F66                     UFRM            equ	3942	;# 
   111   000F66                     UFRML           equ	3942	;# 
   112   000F67                     UFRMH           equ	3943	;# 
   113   000F68                     UIR             equ	3944	;# 
   114   000F69                     UIE             equ	3945	;# 
   115   000F6A                     UEIR            equ	3946	;# 
   116   000F6B                     UEIE            equ	3947	;# 
   117   000F6C                     USTAT           equ	3948	;# 
   118   000F6D                     UCON            equ	3949	;# 
   119   000F6E                     UADDR           equ	3950	;# 
   120   000F6F                     UCFG            equ	3951	;# 
   121   000F70                     UEP0            equ	3952	;# 
   122   000F71                     UEP1            equ	3953	;# 
   123   000F72                     UEP2            equ	3954	;# 
   124   000F73                     UEP3            equ	3955	;# 
   125   000F74                     UEP4            equ	3956	;# 
   126   000F75                     UEP5            equ	3957	;# 
   127   000F76                     UEP6            equ	3958	;# 
   128   000F77                     UEP7            equ	3959	;# 
   129   000F78                     UEP8            equ	3960	;# 
   130   000F79                     UEP9            equ	3961	;# 
   131   000F7A                     UEP10           equ	3962	;# 
   132   000F7B                     UEP11           equ	3963	;# 
   133   000F7C                     UEP12           equ	3964	;# 
   134   000F7D                     UEP13           equ	3965	;# 
   135   000F7E                     UEP14           equ	3966	;# 
   136   000F7F                     UEP15           equ	3967	;# 
   137   000F80                     PORTA           equ	3968	;# 
   138   000F81                     PORTB           equ	3969	;# 
   139   000F82                     PORTC           equ	3970	;# 
   140   000F83                     PORTD           equ	3971	;# 
   141   000F84                     PORTE           equ	3972	;# 
   142   000F89                     LATA            equ	3977	;# 
   143   000F8A                     LATB            equ	3978	;# 
   144   000F8B                     LATC            equ	3979	;# 
   145   000F8C                     LATD            equ	3980	;# 
   146   000F8D                     LATE            equ	3981	;# 
   147   000F92                     TRISA           equ	3986	;# 
   148   000F92                     DDRA            equ	3986	;# 
   149   000F93                     TRISB           equ	3987	;# 
   150   000F93                     DDRB            equ	3987	;# 
   151   000F94                     TRISC           equ	3988	;# 
   152   000F94                     DDRC            equ	3988	;# 
   153   000F95                     TRISD           equ	3989	;# 
   154   000F95                     DDRD            equ	3989	;# 
   155   000F96                     TRISE           equ	3990	;# 
   156   000F96                     DDRE            equ	3990	;# 
   157   000F9B                     OSCTUNE         equ	3995	;# 
   158   000F9D                     PIE1            equ	3997	;# 
   159   000F9E                     PIR1            equ	3998	;# 
   160   000F9F                     IPR1            equ	3999	;# 
   161   000FA0                     PIE2            equ	4000	;# 
   162   000FA1                     PIR2            equ	4001	;# 
   163   000FA2                     IPR2            equ	4002	;# 
   164   000FA6                     EECON1          equ	4006	;# 
   165   000FA7                     EECON2          equ	4007	;# 
   166   000FA8                     EEDATA          equ	4008	;# 
   167   000FA9                     EEADR           equ	4009	;# 
   168   000FAB                     RCSTA           equ	4011	;# 
   169   000FAB                     RCSTA1          equ	4011	;# 
   170   000FAC                     TXSTA           equ	4012	;# 
   171   000FAC                     TXSTA1          equ	4012	;# 
   172   000FAD                     TXREG           equ	4013	;# 
   173   000FAD                     TXREG1          equ	4013	;# 
   174   000FAE                     RCREG           equ	4014	;# 
   175   000FAE                     RCREG1          equ	4014	;# 
   176   000FAF                     SPBRG           equ	4015	;# 
   177   000FAF                     SPBRG1          equ	4015	;# 
   178   000FB0                     SPBRGH          equ	4016	;# 
   179   000FB1                     T3CON           equ	4017	;# 
   180   000FB2                     TMR3            equ	4018	;# 
   181   000FB2                     TMR3L           equ	4018	;# 
   182   000FB3                     TMR3H           equ	4019	;# 
   183   000FB4                     CMCON           equ	4020	;# 
   184   000FB5                     CVRCON          equ	4021	;# 
   185   000FB6                     ECCP1AS         equ	4022	;# 
   186   000FB6                     CCP1AS          equ	4022	;# 
   187   000FB7                     ECCP1DEL        equ	4023	;# 
   188   000FB7                     CCP1DEL         equ	4023	;# 
   189   000FB8                     BAUDCON         equ	4024	;# 
   190   000FB8                     BAUDCTL         equ	4024	;# 
   191   000FBA                     CCP2CON         equ	4026	;# 
   192   000FBB                     CCPR2           equ	4027	;# 
   193   000FBB                     CCPR2L          equ	4027	;# 
   194   000FBC                     CCPR2H          equ	4028	;# 
   195   000FBD                     CCP1CON         equ	4029	;# 
   196   000FBD                     ECCP1CON        equ	4029	;# 
   197   000FBE                     CCPR1           equ	4030	;# 
   198   000FBE                     CCPR1L          equ	4030	;# 
   199   000FBF                     CCPR1H          equ	4031	;# 
   200   000FC0                     ADCON2          equ	4032	;# 
   201   000FC1                     ADCON1          equ	4033	;# 
   202   000FC2                     ADCON0          equ	4034	;# 
   203   000FC3                     ADRES           equ	4035	;# 
   204   000FC3                     ADRESL          equ	4035	;# 
   205   000FC4                     ADRESH          equ	4036	;# 
   206   000FC5                     SSPCON2         equ	4037	;# 
   207   000FC6                     SSPCON1         equ	4038	;# 
   208   000FC7                     SSPSTAT         equ	4039	;# 
   209   000FC8                     SSPADD          equ	4040	;# 
   210   000FC9                     SSPBUF          equ	4041	;# 
   211   000FCA                     T2CON           equ	4042	;# 
   212   000FCB                     PR2             equ	4043	;# 
   213   000FCB                     MEMCON          equ	4043	;# 
   214   000FCC                     TMR2            equ	4044	;# 
   215   000FCD                     T1CON           equ	4045	;# 
   216   000FCE                     TMR1            equ	4046	;# 
   217   000FCE                     TMR1L           equ	4046	;# 
   218   000FCF                     TMR1H           equ	4047	;# 
   219   000FD0                     RCON            equ	4048	;# 
   220   000FD1                     WDTCON          equ	4049	;# 
   221   000FD2                     HLVDCON         equ	4050	;# 
   222   000FD2                     LVDCON          equ	4050	;# 
   223   000FD3                     OSCCON          equ	4051	;# 
   224   000FD5                     T0CON           equ	4053	;# 
   225   000FD6                     TMR0            equ	4054	;# 
   226   000FD6                     TMR0L           equ	4054	;# 
   227   000FD7                     TMR0H           equ	4055	;# 
   228   000FD8                     STATUS          equ	4056	;# 
   229   000FD9                     FSR2            equ	4057	;# 
   230   000FD9                     FSR2L           equ	4057	;# 
   231   000FDA                     FSR2H           equ	4058	;# 
   232   000FDB                     PLUSW2          equ	4059	;# 
   233   000FDC                     PREINC2         equ	4060	;# 
   234   000FDD                     POSTDEC2        equ	4061	;# 
   235   000FDE                     POSTINC2        equ	4062	;# 
   236   000FDF                     INDF2           equ	4063	;# 
   237   000FE0                     BSR             equ	4064	;# 
   238   000FE1                     FSR1            equ	4065	;# 
   239   000FE1                     FSR1L           equ	4065	;# 
   240   000FE2                     FSR1H           equ	4066	;# 
   241   000FE3                     PLUSW1          equ	4067	;# 
   242   000FE4                     PREINC1         equ	4068	;# 
   243   000FE5                     POSTDEC1        equ	4069	;# 
   244   000FE6                     POSTINC1        equ	4070	;# 
   245   000FE7                     INDF1           equ	4071	;# 
   246   000FE8                     WREG            equ	4072	;# 
   247   000FE9                     FSR0            equ	4073	;# 
   248   000FE9                     FSR0L           equ	4073	;# 
   249   000FEA                     FSR0H           equ	4074	;# 
   250   000FEB                     PLUSW0          equ	4075	;# 
   251   000FEC                     PREINC0         equ	4076	;# 
   252   000FED                     POSTDEC0        equ	4077	;# 
   253   000FEE                     POSTINC0        equ	4078	;# 
   254   000FEF                     INDF0           equ	4079	;# 
   255   000FF0                     INTCON3         equ	4080	;# 
   256   000FF1                     INTCON2         equ	4081	;# 
   257   000FF2                     INTCON          equ	4082	;# 
   258   000FF3                     PROD            equ	4083	;# 
   259   000FF3                     PRODL           equ	4083	;# 
   260   000FF4                     PRODH           equ	4084	;# 
   261   000FF5                     TABLAT          equ	4085	;# 
   262   000FF6                     TBLPTR          equ	4086	;# 
   263   000FF6                     TBLPTRL         equ	4086	;# 
   264   000FF7                     TBLPTRH         equ	4087	;# 
   265   000FF8                     TBLPTRU         equ	4088	;# 
   266   000FF9                     PCLAT           equ	4089	;# 
   267   000FF9                     PC              equ	4089	;# 
   268   000FF9                     PCL             equ	4089	;# 
   269   000FFA                     PCLATH          equ	4090	;# 
   270   000FFB                     PCLATU          equ	4091	;# 
   271   000FFC                     STKPTR          equ	4092	;# 
   272   000FFD                     TOS             equ	4093	;# 
   273   000FFD                     TOSL            equ	4093	;# 
   274   000FFE                     TOSH            equ	4094	;# 
   275   000FFF                     TOSU            equ	4095	;# 
   276   000F62                     SPPDATA         equ	3938	;# 
   277   000F63                     SPPCFG          equ	3939	;# 
   278   000F64                     SPPEPS          equ	3940	;# 
   279   000F65                     SPPCON          equ	3941	;# 
   280   000F66                     UFRM            equ	3942	;# 
   281   000F66                     UFRML           equ	3942	;# 
   282   000F67                     UFRMH           equ	3943	;# 
   283   000F68                     UIR             equ	3944	;# 
   284   000F69                     UIE             equ	3945	;# 
   285   000F6A                     UEIR            equ	3946	;# 
   286   000F6B                     UEIE            equ	3947	;# 
   287   000F6C                     USTAT           equ	3948	;# 
   288   000F6D                     UCON            equ	3949	;# 
   289   000F6E                     UADDR           equ	3950	;# 
   290   000F6F                     UCFG            equ	3951	;# 
   291   000F70                     UEP0            equ	3952	;# 
   292   000F71                     UEP1            equ	3953	;# 
   293   000F72                     UEP2            equ	3954	;# 
   294   000F73                     UEP3            equ	3955	;# 
   295   000F74                     UEP4            equ	3956	;# 
   296   000F75                     UEP5            equ	3957	;# 
   297   000F76                     UEP6            equ	3958	;# 
   298   000F77                     UEP7            equ	3959	;# 
   299   000F78                     UEP8            equ	3960	;# 
   300   000F79                     UEP9            equ	3961	;# 
   301   000F7A                     UEP10           equ	3962	;# 
   302   000F7B                     UEP11           equ	3963	;# 
   303   000F7C                     UEP12           equ	3964	;# 
   304   000F7D                     UEP13           equ	3965	;# 
   305   000F7E                     UEP14           equ	3966	;# 
   306   000F7F                     UEP15           equ	3967	;# 
   307   000F80                     PORTA           equ	3968	;# 
   308   000F81                     PORTB           equ	3969	;# 
   309   000F82                     PORTC           equ	3970	;# 
   310   000F83                     PORTD           equ	3971	;# 
   311   000F84                     PORTE           equ	3972	;# 
   312   000F89                     LATA            equ	3977	;# 
   313   000F8A                     LATB            equ	3978	;# 
   314   000F8B                     LATC            equ	3979	;# 
   315   000F8C                     LATD            equ	3980	;# 
   316   000F8D                     LATE            equ	3981	;# 
   317   000F92                     TRISA           equ	3986	;# 
   318   000F92                     DDRA            equ	3986	;# 
   319   000F93                     TRISB           equ	3987	;# 
   320   000F93                     DDRB            equ	3987	;# 
   321   000F94                     TRISC           equ	3988	;# 
   322   000F94                     DDRC            equ	3988	;# 
   323   000F95                     TRISD           equ	3989	;# 
   324   000F95                     DDRD            equ	3989	;# 
   325   000F96                     TRISE           equ	3990	;# 
   326   000F96                     DDRE            equ	3990	;# 
   327   000F9B                     OSCTUNE         equ	3995	;# 
   328   000F9D                     PIE1            equ	3997	;# 
   329   000F9E                     PIR1            equ	3998	;# 
   330   000F9F                     IPR1            equ	3999	;# 
   331   000FA0                     PIE2            equ	4000	;# 
   332   000FA1                     PIR2            equ	4001	;# 
   333   000FA2                     IPR2            equ	4002	;# 
   334   000FA6                     EECON1          equ	4006	;# 
   335   000FA7                     EECON2          equ	4007	;# 
   336   000FA8                     EEDATA          equ	4008	;# 
   337   000FA9                     EEADR           equ	4009	;# 
   338   000FAB                     RCSTA           equ	4011	;# 
   339   000FAB                     RCSTA1          equ	4011	;# 
   340   000FAC                     TXSTA           equ	4012	;# 
   341   000FAC                     TXSTA1          equ	4012	;# 
   342   000FAD                     TXREG           equ	4013	;# 
   343   000FAD                     TXREG1          equ	4013	;# 
   344   000FAE                     RCREG           equ	4014	;# 
   345   000FAE                     RCREG1          equ	4014	;# 
   346   000FAF                     SPBRG           equ	4015	;# 
   347   000FAF                     SPBRG1          equ	4015	;# 
   348   000FB0                     SPBRGH          equ	4016	;# 
   349   000FB1                     T3CON           equ	4017	;# 
   350   000FB2                     TMR3            equ	4018	;# 
   351   000FB2                     TMR3L           equ	4018	;# 
   352   000FB3                     TMR3H           equ	4019	;# 
   353   000FB4                     CMCON           equ	4020	;# 
   354   000FB5                     CVRCON          equ	4021	;# 
   355   000FB6                     ECCP1AS         equ	4022	;# 
   356   000FB6                     CCP1AS          equ	4022	;# 
   357   000FB7                     ECCP1DEL        equ	4023	;# 
   358   000FB7                     CCP1DEL         equ	4023	;# 
   359   000FB8                     BAUDCON         equ	4024	;# 
   360   000FB8                     BAUDCTL         equ	4024	;# 
   361   000FBA                     CCP2CON         equ	4026	;# 
   362   000FBB                     CCPR2           equ	4027	;# 
   363   000FBB                     CCPR2L          equ	4027	;# 
   364   000FBC                     CCPR2H          equ	4028	;# 
   365   000FBD                     CCP1CON         equ	4029	;# 
   366   000FBD                     ECCP1CON        equ	4029	;# 
   367   000FBE                     CCPR1           equ	4030	;# 
   368   000FBE                     CCPR1L          equ	4030	;# 
   369   000FBF                     CCPR1H          equ	4031	;# 
   370   000FC0                     ADCON2          equ	4032	;# 
   371   000FC1                     ADCON1          equ	4033	;# 
   372   000FC2                     ADCON0          equ	4034	;# 
   373   000FC3                     ADRES           equ	4035	;# 
   374   000FC3                     ADRESL          equ	4035	;# 
   375   000FC4                     ADRESH          equ	4036	;# 
   376   000FC5                     SSPCON2         equ	4037	;# 
   377   000FC6                     SSPCON1         equ	4038	;# 
   378   000FC7                     SSPSTAT         equ	4039	;# 
   379   000FC8                     SSPADD          equ	4040	;# 
   380   000FC9                     SSPBUF          equ	4041	;# 
   381   000FCA                     T2CON           equ	4042	;# 
   382   000FCB                     PR2             equ	4043	;# 
   383   000FCB                     MEMCON          equ	4043	;# 
   384   000FCC                     TMR2            equ	4044	;# 
   385   000FCD                     T1CON           equ	4045	;# 
   386   000FCE                     TMR1            equ	4046	;# 
   387   000FCE                     TMR1L           equ	4046	;# 
   388   000FCF                     TMR1H           equ	4047	;# 
   389   000FD0                     RCON            equ	4048	;# 
   390   000FD1                     WDTCON          equ	4049	;# 
   391   000FD2                     HLVDCON         equ	4050	;# 
   392   000FD2                     LVDCON          equ	4050	;# 
   393   000FD3                     OSCCON          equ	4051	;# 
   394   000FD5                     T0CON           equ	4053	;# 
   395   000FD6                     TMR0            equ	4054	;# 
   396   000FD6                     TMR0L           equ	4054	;# 
   397   000FD7                     TMR0H           equ	4055	;# 
   398   000FD8                     STATUS          equ	4056	;# 
   399   000FD9                     FSR2            equ	4057	;# 
   400   000FD9                     FSR2L           equ	4057	;# 
   401   000FDA                     FSR2H           equ	4058	;# 
   402   000FDB                     PLUSW2          equ	4059	;# 
   403   000FDC                     PREINC2         equ	4060	;# 
   404   000FDD                     POSTDEC2        equ	4061	;# 
   405   000FDE                     POSTINC2        equ	4062	;# 
   406   000FDF                     INDF2           equ	4063	;# 
   407   000FE0                     BSR             equ	4064	;# 
   408   000FE1                     FSR1            equ	4065	;# 
   409   000FE1                     FSR1L           equ	4065	;# 
   410   000FE2                     FSR1H           equ	4066	;# 
   411   000FE3                     PLUSW1          equ	4067	;# 
   412   000FE4                     PREINC1         equ	4068	;# 
   413   000FE5                     POSTDEC1        equ	4069	;# 
   414   000FE6                     POSTINC1        equ	4070	;# 
   415   000FE7                     INDF1           equ	4071	;# 
   416   000FE8                     WREG            equ	4072	;# 
   417   000FE9                     FSR0            equ	4073	;# 
   418   000FE9                     FSR0L           equ	4073	;# 
   419   000FEA                     FSR0H           equ	4074	;# 
   420   000FEB                     PLUSW0          equ	4075	;# 
   421   000FEC                     PREINC0         equ	4076	;# 
   422   000FED                     POSTDEC0        equ	4077	;# 
   423   000FEE                     POSTINC0        equ	4078	;# 
   424   000FEF                     INDF0           equ	4079	;# 
   425   000FF0                     INTCON3         equ	4080	;# 
   426   000FF1                     INTCON2         equ	4081	;# 
   427   000FF2                     INTCON          equ	4082	;# 
   428   000FF3                     PROD            equ	4083	;# 
   429   000FF3                     PRODL           equ	4083	;# 
   430   000FF4                     PRODH           equ	4084	;# 
   431   000FF5                     TABLAT          equ	4085	;# 
   432   000FF6                     TBLPTR          equ	4086	;# 
   433   000FF6                     TBLPTRL         equ	4086	;# 
   434   000FF7                     TBLPTRH         equ	4087	;# 
   435   000FF8                     TBLPTRU         equ	4088	;# 
   436   000FF9                     PCLAT           equ	4089	;# 
   437   000FF9                     PC              equ	4089	;# 
   438   000FF9                     PCL             equ	4089	;# 
   439   000FFA                     PCLATH          equ	4090	;# 
   440   000FFB                     PCLATU          equ	4091	;# 
   441   000FFC                     STKPTR          equ	4092	;# 
   442   000FFD                     TOS             equ	4093	;# 
   443   000FFD                     TOSL            equ	4093	;# 
   444   000FFE                     TOSH            equ	4094	;# 
   445   000FFF                     TOSU            equ	4095	;# 
   446   000F62                     SPPDATA         equ	3938	;# 
   447   000F63                     SPPCFG          equ	3939	;# 
   448   000F64                     SPPEPS          equ	3940	;# 
   449   000F65                     SPPCON          equ	3941	;# 
   450   000F66                     UFRM            equ	3942	;# 
   451   000F66                     UFRML           equ	3942	;# 
   452   000F67                     UFRMH           equ	3943	;# 
   453   000F68                     UIR             equ	3944	;# 
   454   000F69                     UIE             equ	3945	;# 
   455   000F6A                     UEIR            equ	3946	;# 
   456   000F6B                     UEIE            equ	3947	;# 
   457   000F6C                     USTAT           equ	3948	;# 
   458   000F6D                     UCON            equ	3949	;# 
   459   000F6E                     UADDR           equ	3950	;# 
   460   000F6F                     UCFG            equ	3951	;# 
   461   000F70                     UEP0            equ	3952	;# 
   462   000F71                     UEP1            equ	3953	;# 
   463   000F72                     UEP2            equ	3954	;# 
   464   000F73                     UEP3            equ	3955	;# 
   465   000F74                     UEP4            equ	3956	;# 
   466   000F75                     UEP5            equ	3957	;# 
   467   000F76                     UEP6            equ	3958	;# 
   468   000F77                     UEP7            equ	3959	;# 
   469   000F78                     UEP8            equ	3960	;# 
   470   000F79                     UEP9            equ	3961	;# 
   471   000F7A                     UEP10           equ	3962	;# 
   472   000F7B                     UEP11           equ	3963	;# 
   473   000F7C                     UEP12           equ	3964	;# 
   474   000F7D                     UEP13           equ	3965	;# 
   475   000F7E                     UEP14           equ	3966	;# 
   476   000F7F                     UEP15           equ	3967	;# 
   477   000F80                     PORTA           equ	3968	;# 
   478   000F81                     PORTB           equ	3969	;# 
   479   000F82                     PORTC           equ	3970	;# 
   480   000F83                     PORTD           equ	3971	;# 
   481   000F84                     PORTE           equ	3972	;# 
   482   000F89                     LATA            equ	3977	;# 
   483   000F8A                     LATB            equ	3978	;# 
   484   000F8B                     LATC            equ	3979	;# 
   485   000F8C                     LATD            equ	3980	;# 
   486   000F8D                     LATE            equ	3981	;# 
   487   000F92                     TRISA           equ	3986	;# 
   488   000F92                     DDRA            equ	3986	;# 
   489   000F93                     TRISB           equ	3987	;# 
   490   000F93                     DDRB            equ	3987	;# 
   491   000F94                     TRISC           equ	3988	;# 
   492   000F94                     DDRC            equ	3988	;# 
   493   000F95                     TRISD           equ	3989	;# 
   494   000F95                     DDRD            equ	3989	;# 
   495   000F96                     TRISE           equ	3990	;# 
   496   000F96                     DDRE            equ	3990	;# 
   497   000F9B                     OSCTUNE         equ	3995	;# 
   498   000F9D                     PIE1            equ	3997	;# 
   499   000F9E                     PIR1            equ	3998	;# 
   500   000F9F                     IPR1            equ	3999	;# 
   501   000FA0                     PIE2            equ	4000	;# 
   502   000FA1                     PIR2            equ	4001	;# 
   503   000FA2                     IPR2            equ	4002	;# 
   504   000FA6                     EECON1          equ	4006	;# 
   505   000FA7                     EECON2          equ	4007	;# 
   506   000FA8                     EEDATA          equ	4008	;# 
   507   000FA9                     EEADR           equ	4009	;# 
   508   000FAB                     RCSTA           equ	4011	;# 
   509   000FAB                     RCSTA1          equ	4011	;# 
   510   000FAC                     TXSTA           equ	4012	;# 
   511   000FAC                     TXSTA1          equ	4012	;# 
   512   000FAD                     TXREG           equ	4013	;# 
   513   000FAD                     TXREG1          equ	4013	;# 
   514   000FAE                     RCREG           equ	4014	;# 
   515   000FAE                     RCREG1          equ	4014	;# 
   516   000FAF                     SPBRG           equ	4015	;# 
   517   000FAF                     SPBRG1          equ	4015	;# 
   518   000FB0                     SPBRGH          equ	4016	;# 
   519   000FB1                     T3CON           equ	4017	;# 
   520   000FB2                     TMR3            equ	4018	;# 
   521   000FB2                     TMR3L           equ	4018	;# 
   522   000FB3                     TMR3H           equ	4019	;# 
   523   000FB4                     CMCON           equ	4020	;# 
   524   000FB5                     CVRCON          equ	4021	;# 
   525   000FB6                     ECCP1AS         equ	4022	;# 
   526   000FB6                     CCP1AS          equ	4022	;# 
   527   000FB7                     ECCP1DEL        equ	4023	;# 
   528   000FB7                     CCP1DEL         equ	4023	;# 
   529   000FB8                     BAUDCON         equ	4024	;# 
   530   000FB8                     BAUDCTL         equ	4024	;# 
   531   000FBA                     CCP2CON         equ	4026	;# 
   532   000FBB                     CCPR2           equ	4027	;# 
   533   000FBB                     CCPR2L          equ	4027	;# 
   534   000FBC                     CCPR2H          equ	4028	;# 
   535   000FBD                     CCP1CON         equ	4029	;# 
   536   000FBD                     ECCP1CON        equ	4029	;# 
   537   000FBE                     CCPR1           equ	4030	;# 
   538   000FBE                     CCPR1L          equ	4030	;# 
   539   000FBF                     CCPR1H          equ	4031	;# 
   540   000FC0                     ADCON2          equ	4032	;# 
   541   000FC1                     ADCON1          equ	4033	;# 
   542   000FC2                     ADCON0          equ	4034	;# 
   543   000FC3                     ADRES           equ	4035	;# 
   544   000FC3                     ADRESL          equ	4035	;# 
   545   000FC4                     ADRESH          equ	4036	;# 
   546   000FC5                     SSPCON2         equ	4037	;# 
   547   000FC6                     SSPCON1         equ	4038	;# 
   548   000FC7                     SSPSTAT         equ	4039	;# 
   549   000FC8                     SSPADD          equ	4040	;# 
   550   000FC9                     SSPBUF          equ	4041	;# 
   551   000FCA                     T2CON           equ	4042	;# 
   552   000FCB                     PR2             equ	4043	;# 
   553   000FCB                     MEMCON          equ	4043	;# 
   554   000FCC                     TMR2            equ	4044	;# 
   555   000FCD                     T1CON           equ	4045	;# 
   556   000FCE                     TMR1            equ	4046	;# 
   557   000FCE                     TMR1L           equ	4046	;# 
   558   000FCF                     TMR1H           equ	4047	;# 
   559   000FD0                     RCON            equ	4048	;# 
   560   000FD1                     WDTCON          equ	4049	;# 
   561   000FD2                     HLVDCON         equ	4050	;# 
   562   000FD2                     LVDCON          equ	4050	;# 
   563   000FD3                     OSCCON          equ	4051	;# 
   564   000FD5                     T0CON           equ	4053	;# 
   565   000FD6                     TMR0            equ	4054	;# 
   566   000FD6                     TMR0L           equ	4054	;# 
   567   000FD7                     TMR0H           equ	4055	;# 
   568   000FD8                     STATUS          equ	4056	;# 
   569   000FD9                     FSR2            equ	4057	;# 
   570   000FD9                     FSR2L           equ	4057	;# 
   571   000FDA                     FSR2H           equ	4058	;# 
   572   000FDB                     PLUSW2          equ	4059	;# 
   573   000FDC                     PREINC2         equ	4060	;# 
   574   000FDD                     POSTDEC2        equ	4061	;# 
   575   000FDE                     POSTINC2        equ	4062	;# 
   576   000FDF                     INDF2           equ	4063	;# 
   577   000FE0                     BSR             equ	4064	;# 
   578   000FE1                     FSR1            equ	4065	;# 
   579   000FE1                     FSR1L           equ	4065	;# 
   580   000FE2                     FSR1H           equ	4066	;# 
   581   000FE3                     PLUSW1          equ	4067	;# 
   582   000FE4                     PREINC1         equ	4068	;# 
   583   000FE5                     POSTDEC1        equ	4069	;# 
   584   000FE6                     POSTINC1        equ	4070	;# 
   585   000FE7                     INDF1           equ	4071	;# 
   586   000FE8                     WREG            equ	4072	;# 
   587   000FE9                     FSR0            equ	4073	;# 
   588   000FE9                     FSR0L           equ	4073	;# 
   589   000FEA                     FSR0H           equ	4074	;# 
   590   000FEB                     PLUSW0          equ	4075	;# 
   591   000FEC                     PREINC0         equ	4076	;# 
   592   000FED                     POSTDEC0        equ	4077	;# 
   593   000FEE                     POSTINC0        equ	4078	;# 
   594   000FEF                     INDF0           equ	4079	;# 
   595   000FF0                     INTCON3         equ	4080	;# 
   596   000FF1                     INTCON2         equ	4081	;# 
   597   000FF2                     INTCON          equ	4082	;# 
   598   000FF3                     PROD            equ	4083	;# 
   599   000FF3                     PRODL           equ	4083	;# 
   600   000FF4                     PRODH           equ	4084	;# 
   601   000FF5                     TABLAT          equ	4085	;# 
   602   000FF6                     TBLPTR          equ	4086	;# 
   603   000FF6                     TBLPTRL         equ	4086	;# 
   604   000FF7                     TBLPTRH         equ	4087	;# 
   605   000FF8                     TBLPTRU         equ	4088	;# 
   606   000FF9                     PCLAT           equ	4089	;# 
   607   000FF9                     PC              equ	4089	;# 
   608   000FF9                     PCL             equ	4089	;# 
   609   000FFA                     PCLATH          equ	4090	;# 
   610   000FFB                     PCLATU          equ	4091	;# 
   611   000FFC                     STKPTR          equ	4092	;# 
   612   000FFD                     TOS             equ	4093	;# 
   613   000FFD                     TOSL            equ	4093	;# 
   614   000FFE                     TOSH            equ	4094	;# 
   615   000FFF                     TOSU            equ	4095	;# 
   616                           
   617                           	psect	idataCOMRAM
   618   000C04                     __pidataCOMRAM:
   619                           	callstack 0
   620                           
   621                           ;initializer for _menu
   622   000C04  01                 	db	1
   623                           
   624                           ;initializer for _h
   625   000C05  0C                 	db	12
   626   000F8B                     _LATCbits       set	3979
   627   000F9E                     _PIR1bits       set	3998
   628   000F80                     _PORTAbits      set	3968
   629   000FF0                     _INTCON3bits    set	4080
   630   000FF2                     _INTCONbits     set	4082
   631   000FD0                     _RCONbits       set	4048
   632   000FBD                     _CCP1CONbits    set	4029
   633   000FBE                     _CCPR1L         set	4030
   634   000FBD                     _CCP1CON        set	4029
   635   000FCB                     _PR2            set	4043
   636   000FCA                     _T2CON          set	4042
   637   000F96                     _TRISE          set	3990
   638   000FF1                     _INTCON2bits    set	4081
   639   000F94                     _TRISCbits      set	3988
   640   000F92                     _TRISAbits      set	3986
   641   000F93                     _TRISBbits      set	3987
   642   000FB4                     _CMCON          set	4020
   643   000FC1                     _ADCON1         set	4033
   644   000F8D                     _LATEbits       set	3981
   645   000F96                     _TRISEbits      set	3990
   646   000F95                     _TRISD          set	3989
   647   000F83                     _PORTD          set	3971
   648                           
   649                           	psect	smallconst
   650   000800                     __psmallconst:
   651                           	callstack 0
   652   000800  00                 	db	0
   653   000801                     STR_2:
   654   000801  43                 	db	67	;'C'
   655   000802  6F                 	db	111	;'o'
   656   000803  6E                 	db	110	;'n'
   657   000804  74                 	db	116	;'t'
   658   000805  72                 	db	114	;'r'
   659   000806  6F                 	db	111	;'o'
   660   000807  6C                 	db	108	;'l'
   661   000808  65                 	db	101	;'e'
   662   000809  20                 	db	32
   663   00080A  41                 	db	65	;'A'
   664   00080B  62                 	db	98	;'b'
   665   00080C  65                 	db	101	;'e'
   666   00080D  72                 	db	114	;'r'
   667   00080E  74                 	db	116	;'t'
   668   00080F  6F                 	db	111	;'o'
   669   000810  20                 	db	32
   670   000811  00                 	db	0
   671   000812                     STR_4:
   672   000812  4C                 	db	76	;'L'
   673   000813  69                 	db	105	;'i'
   674   000814  67                 	db	103	;'g'
   675   000815  61                 	db	97	;'a'
   676   000816  20                 	db	32
   677   000817  56                 	db	86	;'V'
   678   000818  65                 	db	101	;'e'
   679   000819  6E                 	db	110	;'n'
   680   00081A  74                 	db	116	;'t'
   681   00081B  69                 	db	105	;'i'
   682   00081C  6C                 	db	108	;'l'
   683   00081D  61                 	db	97	;'a'
   684   00081E  64                 	db	100	;'d'
   685   00081F  6F                 	db	111	;'o'
   686   000820  72                 	db	114	;'r'
   687   000821  20                 	db	32
   688   000822  00                 	db	0
   689   000823                     STR_3:
   690   000823  43                 	db	67	;'C'
   691   000824  6F                 	db	111	;'o'
   692   000825  6E                 	db	110	;'n'
   693   000826  74                 	db	116	;'t'
   694   000827  72                 	db	114	;'r'
   695   000828  6F                 	db	111	;'o'
   696   000829  6C                 	db	108	;'l'
   697   00082A  65                 	db	101	;'e'
   698   00082B  20                 	db	32
   699   00082C  46                 	db	70	;'F'
   700   00082D  65                 	db	101	;'e'
   701   00082E  63                 	db	99	;'c'
   702   00082F  68                 	db	104	;'h'
   703   000830  61                 	db	97	;'a'
   704   000831  64                 	db	100	;'d'
   705   000832  6F                 	db	111	;'o'
   706   000833  00                 	db	0
   707   000834                     STR_1:
   708   000834  54                 	db	84	;'T'
   709   000835  45                 	db	69	;'E'
   710   000836  53                 	db	83	;'S'
   711   000837  54                 	db	84	;'T'
   712   000838  45                 	db	69	;'E'
   713   000839  20                 	db	32
   714   00083A  4C                 	db	76	;'L'
   715   00083B  43                 	db	67	;'C'
   716   00083C  44                 	db	68	;'D'
   717   00083D  00                 	db	0
   718   00083E  00                 	db	0	; dummy byte at the end
   719   000800                     __smallconst    set	__psmallconst
   720   000800                     __mediumconst   set	__psmallconst
   721   000002                     __activetblptr  equ	2
   722                           
   723                           ; #config settings
   724                           
   725                           	psect	cinit
   726   000BB0                     __pcinit:
   727                           	callstack 0
   728   000BB0                     start_initialization:
   729                           	callstack 0
   730   000BB0                     __initialization:
   731                           	callstack 0
   732                           
   733                           ; Initialize objects allocated to COMRAM (2 bytes)
   734                           ; load TBLPTR registers with __pidataCOMRAM
   735   000BB0  0E04               	movlw	low __pidataCOMRAM
   736   000BB2  6EF6               	movwf	tblptrl,c
   737   000BB4  0E0C               	movlw	high __pidataCOMRAM
   738   000BB6  6EF7               	movwf	tblptrh,c
   739   000BB8  0E00               	movlw	low (__pidataCOMRAM shr (0+16))
   740   000BBA  6EF8               	movwf	tblptru,c
   741   000BBC  0009               	tblrd		*+	;fetch initializer
   742   000BBE  CFF5 F00A          	movff	tablat,__pdataCOMRAM
   743   000BC2  0009               	tblrd		*+	;fetch initializer
   744   000BC4  CFF5 F00B          	movff	tablat,__pdataCOMRAM+1
   745                           
   746                           ; Clear objects allocated to COMRAM (1 bytes)
   747   000BC8  6A0C               	clrf	__pbssCOMRAM& (0+255),c
   748   000BCA                     end_of_initialization:
   749                           	callstack 0
   750   000BCA                     __end_of__initialization:
   751                           	callstack 0
   752   000BCA  9001               	bcf	int$flags,0,c	;clear compiler interrupt flag (level 1)
   753   000BCC  9201               	bcf	int$flags,1,c	;clear compiler interrupt flag (level 2)
   754   000BCE  0E00               	movlw	low (__Lmediumconst shr (0+16))
   755   000BD0  6EF8               	movwf	tblptru,c
   756   000BD2  0100               	movlb	0
   757   000BD4  EF20  F004         	goto	_main	;jump to C main() function
   758                           
   759                           	psect	bssCOMRAM
   760   00000C                     __pbssCOMRAM:
   761                           	callstack 0
   762   00000C                     _m:
   763                           	callstack 0
   764   00000C                     	ds	1
   765                           
   766                           	psect	dataCOMRAM
   767   00000A                     __pdataCOMRAM:
   768                           	callstack 0
   769   00000A                     _menu:
   770                           	callstack 0
   771   00000A                     	ds	1
   772   00000B                     _h:
   773                           	callstack 0
   774   00000B                     	ds	1
   775                           
   776                           	psect	cstackCOMRAM
   777   000002                     __pcstackCOMRAM:
   778                           	callstack 0
   779   000002                     ??_ISR_Alta_Prioridade:
   780                           
   781                           ; 1 bytes @ 0x0
   782   000002                     	ds	1
   783   000003                     ??_ISR_Baixa_Prioridade:
   784                           
   785                           ; 1 bytes @ 0x1
   786   000003                     	ds	3
   787   000006                     SetDDRamAddr@DDaddr:
   788                           	callstack 0
   789   000006                     WriteCmdXLCD@cmd:
   790                           	callstack 0
   791   000006                     WriteDataXLCD@data:
   792                           	callstack 0
   793   000006                     ??_DelayPORXLCD:
   794   000006                     ??_DelayXLCD:
   795   000006                     
   796                           ; 1 bytes @ 0x4
   797   000006                     	ds	1
   798   000007                     OpenXLCD@lcdtype:
   799                           	callstack 0
   800   000007                     putrsXLCD@buffer:
   801                           	callstack 0
   802   000007                     
   803                           ; 1 bytes @ 0x5
   804   000007                     	ds	1
   805   000008                     ??_main:
   806                           
   807                           ; 1 bytes @ 0x6
   808   000008                     	ds	1
   809   000009                     main@atraso:
   810                           	callstack 0
   811                           
   812                           ; 1 bytes @ 0x7
   813   000009                     	ds	1
   814                           
   815 ;;
   816 ;;Main: autosize = 0, tempsize = 1, incstack = 0, save=0
   817 ;;
   818 ;; *************** function _main *****************
   819 ;; Defined at:
   820 ;;		line 18 in file "Controle_temperatura.c"
   821 ;; Parameters:    Size  Location     Type
   822 ;;		None
   823 ;; Auto vars:     Size  Location     Type
   824 ;;  atraso          1    7[COMRAM] unsigned char 
   825 ;; Return value:  Size  Location     Type
   826 ;;                  1    wreg      void 
   827 ;; Registers used:
   828 ;;		wreg, status,2, status,0, tblptrl, tblptrh, tblptru, cstack
   829 ;; Tracked objects:
   830 ;;		On entry : 0/0
   831 ;;		On exit  : 0/0
   832 ;;		Unchanged: 0/0
   833 ;; Data sizes:     COMRAM   BANK0   BANK1   BANK2   BANK3   BANK4   BANK5   BANK6   BANK7
   834 ;;      Params:         0       0       0       0       0       0       0       0       0
   835 ;;      Locals:         1       0       0       0       0       0       0       0       0
   836 ;;      Temps:          1       0       0       0       0       0       0       0       0
   837 ;;      Totals:         2       0       0       0       0       0       0       0       0
   838 ;;Total ram usage:        2 bytes
   839 ;; Hardware stack levels required when called: 5
   840 ;; This function calls:
   841 ;;		_OpenXLCD
   842 ;;		_WriteCmdXLCD
   843 ;;		_putrsXLCD
   844 ;; This function is called by:
   845 ;;		Startup code after reset
   846 ;; This function uses a non-reentrant model
   847 ;;
   848                           
   849                           	psect	text0
   850   000840                     __ptext0:
   851                           	callstack 0
   852   000840                     _main:
   853                           	callstack 26
   854   000840                     
   855                           ;Controle_temperatura.c: 19:     TRISCbits.TRISC2 = 0;;Controle_temperatura.c: 22:     T
      +                          RISD = 0x00;
   856   000840  0E0F               	movlw	15
   857   000842  6EC1               	movwf	193,c	;volatile
   858                           
   859                           ;Controle_temperatura.c: 23: 
   860   000844  0E07               	movlw	7
   861   000846  6EB4               	movwf	180,c	;volatile
   862   000848                     
   863                           ;Controle_temperatura.c: 26: 
   864   000848  8093               	bsf	147,0,c	;volatile
   865   00084A                     
   866                           ;Controle_temperatura.c: 27: 
   867   00084A  8293               	bsf	147,1,c	;volatile
   868   00084C                     
   869                           ;Controle_temperatura.c: 28:     T2CON = 0b00000111;
   870   00084C  8493               	bsf	147,2,c	;volatile
   871   00084E                     
   872                           ;Controle_temperatura.c: 29: 
   873   00084E  9A92               	bcf	146,5,c	;volatile
   874   000850                     
   875                           ;Controle_temperatura.c: 30: 
   876   000850  9692               	bcf	146,3,c	;volatile
   877   000852                     
   878                           ;Controle_temperatura.c: 31: 
   879   000852  9294               	bcf	148,1,c	;volatile
   880   000854                     
   881                           ;Controle_temperatura.c: 32: 
   882   000854  9494               	bcf	148,2,c	;volatile
   883   000856                     
   884                           ;Controle_temperatura.c: 33:     PR2 = 255;
   885   000856  9EF1               	bcf	241,7,c	;volatile
   886   000858                     
   887                           ;Controle_temperatura.c: 34: 
   888   000858  6A96               	clrf	150,c	;volatile
   889   00085A                     
   890                           ;Controle_temperatura.c: 35: 
   891   00085A  6A95               	clrf	149,c	;volatile
   892                           
   893                           ;Controle_temperatura.c: 41:     CCP1CONbits.DC1B0 = 0;
   894   00085C  0E07               	movlw	7
   895   00085E  6ECA               	movwf	202,c	;volatile
   896   000860                     
   897                           ;Controle_temperatura.c: 46: 
   898   000860  68CB               	setf	203,c	;volatile
   899                           
   900                           ;Controle_temperatura.c: 50: 
   901   000862  0E0C               	movlw	12
   902   000864  6EBD               	movwf	189,c	;volatile
   903                           
   904                           ;Controle_temperatura.c: 53:     INTCONbits.INT0IF = 0;
   905   000866  0EBF               	movlw	191
   906   000868  6EBE               	movwf	190,c	;volatile
   907   00086A                     
   908                           ;Controle_temperatura.c: 54: 
   909   00086A  98BD               	bcf	189,4,c	;volatile
   910   00086C                     
   911                           ;Controle_temperatura.c: 55: 
   912   00086C  9ABD               	bcf	189,5,c	;volatile
   913   00086E                     
   914                           ;Controle_temperatura.c: 61:     INTCON3bits.INT2IE = 1;
   915   00086E  8ED0               	bsf	208,7,c	;volatile
   916   000870                     
   917                           ;Controle_temperatura.c: 62:     INTCON3bits.INT2IF = 0;
   918   000870  8CF2               	bsf	242,6,c	;volatile
   919   000872                     
   920                           ;Controle_temperatura.c: 65:     INTCONbits.GIEL = 1;
   921   000872  88F2               	bsf	242,4,c	;volatile
   922   000874                     
   923                           ;Controle_temperatura.c: 66:     INTCONbits.GIEH = 1;
   924   000874  92F2               	bcf	242,1,c	;volatile
   925   000876                     
   926                           ;Controle_temperatura.c: 69:     OpenXLCD( 0b00101100 & 0b00111000 );
   927   000876  86F0               	bsf	240,3,c	;volatile
   928   000878                     
   929                           ;Controle_temperatura.c: 70:     WriteCmdXLCD(0x01);
   930   000878  90F0               	bcf	240,0,c	;volatile
   931   00087A                     
   932                           ;Controle_temperatura.c: 71:     _delay((unsigned long)((16)*(20000000/4000.0)));
   933   00087A  9CF0               	bcf	240,6,c	;volatile
   934   00087C  88F0               	bsf	240,4,c	;volatile
   935   00087E  92F0               	bcf	240,1,c	;volatile
   936   000880  9EF0               	bcf	240,7,c	;volatile
   937   000882  8CF2               	bsf	242,6,c	;volatile
   938   000884  8EF2               	bsf	242,7,c	;volatile
   939   000886  0E28               	movlw	40
   940   000888  EC97  F004         	call	_OpenXLCD
   941   00088C  0E01               	movlw	1
   942   00088E  ECB9  F005         	call	_WriteCmdXLCD
   943   000892  0E68               	movlw	104
   944   000894  6E08               	movwf	??_main^0,c
   945   000896  0EE4               	movlw	228
   946   000898                     u237:
   947   000898  2EE8               	decfsz	wreg,f,c
   948   00089A  D7FE               	bra	u237
   949   00089C  2E08               	decfsz	??_main^0,f,c
   950   00089E  D7FC               	bra	u237
   951   0008A0  D000               	nop2	
   952   0008A2  0E80               	movlw	128
   953   0008A4  ECB9  F005         	call	_WriteCmdXLCD
   954   0008A8                     
   955                           ;Controle_temperatura.c: 99:     putrsXLCD("TESTE LCD");
   956   0008A8  0E34               	movlw	low STR_1
   957   0008AA  6E07               	movwf	putrsXLCD@buffer^0,c
   958   0008AC  EC33  F005         	call	_putrsXLCD	;wreg free
   959   0008B0                     l145:
   960   0008B0  0004               	clrwdt		;# 
   961   0008B2                     
   962                           ;Controle_temperatura.c: 103:         PORTAbits.RA5 = 0;
   963   0008B2  9A80               	bcf	128,5,c	;volatile
   964   0008B4                     
   965                           ;Controle_temperatura.c: 104:         PORTAbits.RA3 = 1;
   966   0008B4  8680               	bsf	128,3,c	;volatile
   967   0008B6                     
   968                           ;Controle_temperatura.c: 106:         WriteCmdXLCD(0xC0);
   969   0008B6  0EC0               	movlw	192
   970   0008B8  ECB9  F005         	call	_WriteCmdXLCD
   971                           
   972                           ;Controle_temperatura.c: 107:         switch (menu){
   973   0008BC  EF72  F004         	goto	l1442
   974   0008C0                     l1434:
   975                           
   976                           ;Controle_temperatura.c: 109:                 putrsXLCD("Controle Aberto ");
   977   0008C0  0E01               	movlw	low STR_2
   978   0008C2  6E07               	movwf	putrsXLCD@buffer^0,c
   979   0008C4  EC33  F005         	call	_putrsXLCD	;wreg free
   980                           
   981                           ;Controle_temperatura.c: 110:                 break;
   982   0008C8  EF81  F004         	goto	l148
   983   0008CC                     l1436:
   984                           
   985                           ;Controle_temperatura.c: 112:                 putrsXLCD("Controle Fechado");
   986   0008CC  0E23               	movlw	low STR_3
   987   0008CE  6E07               	movwf	putrsXLCD@buffer^0,c
   988   0008D0  EC33  F005         	call	_putrsXLCD	;wreg free
   989                           
   990                           ;Controle_temperatura.c: 113:                 break;
   991   0008D4  EF81  F004         	goto	l148
   992   0008D8                     l1438:
   993                           
   994                           ;Controle_temperatura.c: 115:                 putrsXLCD("Liga Ventilador ");
   995   0008D8  0E12               	movlw	low STR_4
   996   0008DA  6E07               	movwf	putrsXLCD@buffer^0,c
   997   0008DC  EC33  F005         	call	_putrsXLCD	;wreg free
   998                           
   999                           ;Controle_temperatura.c: 116:                 break;
  1000   0008E0  EF81  F004         	goto	l148
  1001   0008E4                     l1442:
  1002   0008E4  500A               	movf	_menu^0,w,c
  1003                           
  1004                           ; Switch size 1, requested type "simple"
  1005                           ; Number of cases is 3, Range of values is 1 to 3
  1006                           ; switch strategies available:
  1007                           ; Name         Instructions Cycles
  1008                           ; simple_byte           10     6 (average)
  1009                           ;	Chosen strategy is simple_byte
  1010   0008E6  0A01               	xorlw	1	; case 1
  1011   0008E8  B4D8               	btfsc	status,2,c
  1012   0008EA  EF60  F004         	goto	l1434
  1013   0008EE  0A03               	xorlw	3	; case 2
  1014   0008F0  B4D8               	btfsc	status,2,c
  1015   0008F2  EF66  F004         	goto	l1436
  1016   0008F6  0A01               	xorlw	1	; case 3
  1017   0008F8  B4D8               	btfsc	status,2,c
  1018   0008FA  EF6C  F004         	goto	l1438
  1019   0008FE  EF81  F004         	goto	l148
  1020   000902                     l148:
  1021                           
  1022                           ;Controle_temperatura.c: 119:         for (atraso = 0; atraso < 50; atraso++)
  1023   000902  6A09               	clrf	main@atraso^0,c
  1024   000904                     l1448:
  1025                           
  1026                           ;Controle_temperatura.c: 120:             _delay((unsigned long)((10)*(20000000/4000.0))
      +                          );
  1027   000904  0E41               	movlw	65
  1028   000906  6E08               	movwf	??_main^0,c
  1029   000908  0EEE               	movlw	238
  1030   00090A                     u247:
  1031   00090A  2EE8               	decfsz	wreg,f,c
  1032   00090C  D7FE               	bra	u247
  1033   00090E  2E08               	decfsz	??_main^0,f,c
  1034   000910  D7FC               	bra	u247
  1035   000912  D000               	nop2	
  1036   000914  2A09               	incf	main@atraso^0,f,c
  1037   000916  0E31               	movlw	49
  1038   000918  6409               	cpfsgt	main@atraso^0,c
  1039   00091A  EF91  F004         	goto	u221
  1040   00091E  EF93  F004         	goto	u220
  1041   000922                     u221:
  1042   000922  EF82  F004         	goto	l1448
  1043   000926                     u220:
  1044   000926  EF58  F004         	goto	l145
  1045   00092A  EF44  F000         	goto	start
  1046   00092E                     __end_of_main:
  1047                           	callstack 0
  1048                           
  1049 ;; *************** function _putrsXLCD *****************
  1050 ;; Defined at:
  1051 ;;		line 533 in file "nxlcd.c"
  1052 ;; Parameters:    Size  Location     Type
  1053 ;;  buffer          1    5[COMRAM] PTR const unsigned char 
  1054 ;;		 -> STR_4(17), STR_3(17), STR_2(17), STR_1(10), 
  1055 ;; Auto vars:     Size  Location     Type
  1056 ;;		None
  1057 ;; Return value:  Size  Location     Type
  1058 ;;                  1    wreg      void 
  1059 ;; Registers used:
  1060 ;;		wreg, status,2, status,0, tblptrl, tblptrh, tblptru, cstack
  1061 ;; Tracked objects:
  1062 ;;		On entry : 0/0
  1063 ;;		On exit  : 0/0
  1064 ;;		Unchanged: 0/0
  1065 ;; Data sizes:     COMRAM   BANK0   BANK1   BANK2   BANK3   BANK4   BANK5   BANK6   BANK7
  1066 ;;      Params:         1       0       0       0       0       0       0       0       0
  1067 ;;      Locals:         0       0       0       0       0       0       0       0       0
  1068 ;;      Temps:          0       0       0       0       0       0       0       0       0
  1069 ;;      Totals:         1       0       0       0       0       0       0       0       0
  1070 ;;Total ram usage:        1 bytes
  1071 ;; Hardware stack levels used: 1
  1072 ;; Hardware stack levels required when called: 4
  1073 ;; This function calls:
  1074 ;;		_BusyXLCD
  1075 ;;		_WriteDataXLCD
  1076 ;; This function is called by:
  1077 ;;		_main
  1078 ;; This function uses a non-reentrant model
  1079 ;;
  1080                           
  1081                           	psect	text1
  1082   000A66                     __ptext1:
  1083                           	callstack 0
  1084   000A66                     _putrsXLCD:
  1085                           	callstack 26
  1086   000A66                     
  1087                           ;nxlcd.c: 533: void putrsXLCD(const char *buffer);nxlcd.c: 534: {;nxlcd.c: 535:         
      +                          while(*buffer)
  1088   000A66  EF48  F005         	goto	l1364
  1089   000A6A                     l1358:
  1090   000A6A  EC57  F005         	call	_BusyXLCD	;wreg free
  1091   000A6E  0900               	iorlw	0
  1092   000A70  A4D8               	btfss	status,2,c
  1093   000A72  EF3D  F005         	goto	u201
  1094   000A76  EF3F  F005         	goto	u200
  1095   000A7A                     u201:
  1096   000A7A  EF35  F005         	goto	l1358
  1097   000A7E                     u200:
  1098   000A7E                     
  1099                           ;nxlcd.c: 538:                 WriteDataXLCD(*buffer);
  1100   000A7E  C007  FFF6         	movff	putrsXLCD@buffer,tblptrl
  1101   000A82                     	if	1	;There is more than 1 active tblptr byte
  1102   000A82  0E08               	movlw	high __smallconst
  1103   000A84  6EF7               	movwf	tblptrh,c
  1104   000A86                     	endif
  1105   000A86                     	if	0	;tblptru may be non-zero
  1106   000A86                     	endif
  1107   000A86                     	if	0	;tblptru may be non-zero
  1108   000A86                     	endif
  1109   000A86  0008               	tblrd		*
  1110   000A88  50F5               	movf	tablat,w,c
  1111   000A8A  EC9A  F005         	call	_WriteDataXLCD
  1112   000A8E                     
  1113                           ;nxlcd.c: 539:                 buffer++;
  1114   000A8E  2A07               	incf	putrsXLCD@buffer^0,f,c
  1115   000A90                     l1364:
  1116                           
  1117                           ;nxlcd.c: 535:         while(*buffer)
  1118   000A90  C007  FFF6         	movff	putrsXLCD@buffer,tblptrl
  1119   000A94                     	if	1	;There is more than 1 active tblptr byte
  1120   000A94  0E08               	movlw	high __smallconst
  1121   000A96  6EF7               	movwf	tblptrh,c
  1122   000A98                     	endif
  1123   000A98                     	if	0	;tblptru may be non-zero
  1124   000A98                     	endif
  1125   000A98                     	if	0	;tblptru may be non-zero
  1126   000A98                     	endif
  1127   000A98  0008               	tblrd		*
  1128   000A9A  50F5               	movf	tablat,w,c
  1129   000A9C  0900               	iorlw	0
  1130   000A9E  A4D8               	btfss	status,2,c
  1131   000AA0  EF54  F005         	goto	u211
  1132   000AA4  EF56  F005         	goto	u210
  1133   000AA8                     u211:
  1134   000AA8  EF35  F005         	goto	l1358
  1135   000AAC                     u210:
  1136   000AAC  0012               	return		;funcret
  1137   000AAE                     __end_of_putrsXLCD:
  1138                           	callstack 0
  1139                           
  1140 ;; *************** function _WriteDataXLCD *****************
  1141 ;; Defined at:
  1142 ;;		line 449 in file "nxlcd.c"
  1143 ;; Parameters:    Size  Location     Type
  1144 ;;  data            1    wreg     unsigned char 
  1145 ;; Auto vars:     Size  Location     Type
  1146 ;;  data            1    4[COMRAM] unsigned char 
  1147 ;; Return value:  Size  Location     Type
  1148 ;;                  1    wreg      void 
  1149 ;; Registers used:
  1150 ;;		wreg, status,2, status,0, cstack
  1151 ;; Tracked objects:
  1152 ;;		On entry : 0/0
  1153 ;;		On exit  : 0/0
  1154 ;;		Unchanged: 0/0
  1155 ;; Data sizes:     COMRAM   BANK0   BANK1   BANK2   BANK3   BANK4   BANK5   BANK6   BANK7
  1156 ;;      Params:         0       0       0       0       0       0       0       0       0
  1157 ;;      Locals:         1       0       0       0       0       0       0       0       0
  1158 ;;      Temps:          0       0       0       0       0       0       0       0       0
  1159 ;;      Totals:         1       0       0       0       0       0       0       0       0
  1160 ;;Total ram usage:        1 bytes
  1161 ;; Hardware stack levels used: 1
  1162 ;; Hardware stack levels required when called: 3
  1163 ;; This function calls:
  1164 ;;		_DelayFor18TCY
  1165 ;; This function is called by:
  1166 ;;		_putrsXLCD
  1167 ;;		_putsXLCD
  1168 ;;		_escreve2dig
  1169 ;; This function uses a non-reentrant model
  1170 ;;
  1171                           
  1172                           	psect	text2
  1173   000B34                     __ptext2:
  1174                           	callstack 0
  1175   000B34                     _WriteDataXLCD:
  1176                           	callstack 26
  1177                           
  1178                           ;incstack = 0
  1179                           ;WriteDataXLCD@data stored from wreg
  1180   000B34  6E06               	movwf	WriteDataXLCD@data^0,c
  1181   000B36                     
  1182                           ;nxlcd.c: 449: void WriteDataXLCD(char data);nxlcd.c: 450: {;nxlcd.c: 464:         TRISD
      +                           &= 0x0f;
  1183   000B36  0E0F               	movlw	15
  1184   000B38  1695               	andwf	149,f,c	;volatile
  1185                           
  1186                           ;nxlcd.c: 465:         PORTD &= 0x0f;
  1187   000B3A  0E0F               	movlw	15
  1188   000B3C  1683               	andwf	131,f,c	;volatile
  1189                           
  1190                           ;nxlcd.c: 466:         PORTD |= data&0xf0;
  1191   000B3E  5006               	movf	WriteDataXLCD@data^0,w,c
  1192   000B40  0BF0               	andlw	240
  1193   000B42  1283               	iorwf	131,f,c	;volatile
  1194   000B44                     
  1195                           ;nxlcd.c: 472:         LATEbits.LATE0 = 1;
  1196   000B44  808D               	bsf	141,0,c	;volatile
  1197   000B46                     
  1198                           ;nxlcd.c: 473:         LATEbits.LATE2 = 0;
  1199   000B46  948D               	bcf	141,2,c	;volatile
  1200   000B48                     
  1201                           ;nxlcd.c: 474:         DelayFor18TCY();
  1202   000B48  ECFD  F005         	call	_DelayFor18TCY	;wreg free
  1203   000B4C                     
  1204                           ;nxlcd.c: 475:         LATEbits.LATE1 = 1;
  1205   000B4C  828D               	bsf	141,1,c	;volatile
  1206   000B4E                     
  1207                           ;nxlcd.c: 476:         DelayFor18TCY();
  1208   000B4E  ECFD  F005         	call	_DelayFor18TCY	;wreg free
  1209   000B52                     
  1210                           ;nxlcd.c: 477:         LATEbits.LATE1 = 0;
  1211   000B52  928D               	bcf	141,1,c	;volatile
  1212                           
  1213                           ;nxlcd.c: 479:         PORTD &= 0x0f;
  1214   000B54  0E0F               	movlw	15
  1215   000B56  1683               	andwf	131,f,c	;volatile
  1216                           
  1217                           ;nxlcd.c: 480:         PORTD |= ((data<<4)&0xf0);
  1218   000B58  3806               	swapf	WriteDataXLCD@data^0,w,c
  1219   000B5A  0BF0               	andlw	240
  1220   000B5C  0BF0               	andlw	240
  1221   000B5E  1283               	iorwf	131,f,c	;volatile
  1222   000B60                     
  1223                           ;nxlcd.c: 485:         DelayFor18TCY();
  1224   000B60  ECFD  F005         	call	_DelayFor18TCY	;wreg free
  1225   000B64                     
  1226                           ;nxlcd.c: 486:         LATEbits.LATE1 = 1;
  1227   000B64  828D               	bsf	141,1,c	;volatile
  1228   000B66                     
  1229                           ;nxlcd.c: 487:         DelayFor18TCY();
  1230   000B66  ECFD  F005         	call	_DelayFor18TCY	;wreg free
  1231   000B6A                     
  1232                           ;nxlcd.c: 488:         LATEbits.LATE1 = 0;
  1233   000B6A  928D               	bcf	141,1,c	;volatile
  1234                           
  1235                           ;nxlcd.c: 490:         TRISD |= 0xf0;
  1236   000B6C  0EF0               	movlw	240
  1237   000B6E  1295               	iorwf	149,f,c	;volatile
  1238   000B70  0012               	return		;funcret
  1239   000B72                     __end_of_WriteDataXLCD:
  1240                           	callstack 0
  1241                           
  1242 ;; *************** function _OpenXLCD *****************
  1243 ;; Defined at:
  1244 ;;		line 41 in file "nxlcd.c"
  1245 ;; Parameters:    Size  Location     Type
  1246 ;;  lcdtype         1    wreg     unsigned char 
  1247 ;; Auto vars:     Size  Location     Type
  1248 ;;  lcdtype         1    5[COMRAM] unsigned char 
  1249 ;; Return value:  Size  Location     Type
  1250 ;;                  1    wreg      void 
  1251 ;; Registers used:
  1252 ;;		wreg, status,2, status,0, cstack
  1253 ;; Tracked objects:
  1254 ;;		On entry : 0/0
  1255 ;;		On exit  : 0/0
  1256 ;;		Unchanged: 0/0
  1257 ;; Data sizes:     COMRAM   BANK0   BANK1   BANK2   BANK3   BANK4   BANK5   BANK6   BANK7
  1258 ;;      Params:         0       0       0       0       0       0       0       0       0
  1259 ;;      Locals:         1       0       0       0       0       0       0       0       0
  1260 ;;      Temps:          0       0       0       0       0       0       0       0       0
  1261 ;;      Totals:         1       0       0       0       0       0       0       0       0
  1262 ;;Total ram usage:        1 bytes
  1263 ;; Hardware stack levels used: 1
  1264 ;; Hardware stack levels required when called: 4
  1265 ;; This function calls:
  1266 ;;		_BusyXLCD
  1267 ;;		_DelayPORXLCD
  1268 ;;		_DelayXLCD
  1269 ;;		_SetDDRamAddr
  1270 ;;		_WriteCmdXLCD
  1271 ;; This function is called by:
  1272 ;;		_main
  1273 ;; This function uses a non-reentrant model
  1274 ;;
  1275                           
  1276                           	psect	text3
  1277   00092E                     __ptext3:
  1278                           	callstack 0
  1279   00092E                     _OpenXLCD:
  1280                           	callstack 26
  1281                           
  1282                           ;incstack = 0
  1283                           ;OpenXLCD@lcdtype stored from wreg
  1284   00092E  6E07               	movwf	OpenXLCD@lcdtype^0,c
  1285   000930                     
  1286                           ;nxlcd.c: 41: void OpenXLCD(unsigned char lcdtype);nxlcd.c: 42: {;nxlcd.c: 50:         P
      +                          ORTD &= 0x0f;
  1287   000930  0E0F               	movlw	15
  1288   000932  1683               	andwf	131,f,c	;volatile
  1289                           
  1290                           ;nxlcd.c: 51:         TRISD &= 0x0F;
  1291   000934  0E0F               	movlw	15
  1292   000936  1695               	andwf	149,f,c	;volatile
  1293   000938                     
  1294                           ;nxlcd.c: 57:         TRISEbits.TRISE2 = 0;
  1295   000938  9496               	bcf	150,2,c	;volatile
  1296   00093A                     
  1297                           ;nxlcd.c: 58:         TRISEbits.TRISE0 = 0;
  1298   00093A  9096               	bcf	150,0,c	;volatile
  1299   00093C                     
  1300                           ;nxlcd.c: 59:         TRISEbits.TRISE1 = 0;
  1301   00093C  9296               	bcf	150,1,c	;volatile
  1302   00093E                     
  1303                           ;nxlcd.c: 60:         LATEbits.LATE2 = 0;
  1304   00093E  948D               	bcf	141,2,c	;volatile
  1305   000940                     
  1306                           ;nxlcd.c: 61:         LATEbits.LATE0 = 0;
  1307   000940  908D               	bcf	141,0,c	;volatile
  1308   000942                     
  1309                           ;nxlcd.c: 62:         LATEbits.LATE1 = 0;
  1310   000942  928D               	bcf	141,1,c	;volatile
  1311   000944                     
  1312                           ;nxlcd.c: 65:         DelayPORXLCD();
  1313   000944  ECF5  F005         	call	_DelayPORXLCD	;wreg free
  1314   000948                     
  1315                           ;nxlcd.c: 67:    WriteCmdXLCD(0x30);
  1316   000948  0E30               	movlw	48
  1317   00094A  ECB9  F005         	call	_WriteCmdXLCD
  1318   00094E                     
  1319                           ;nxlcd.c: 68:    DelayXLCD();
  1320   00094E  ECEC  F005         	call	_DelayXLCD	;wreg free
  1321   000952                     
  1322                           ;nxlcd.c: 69:    DelayXLCD();
  1323   000952  ECEC  F005         	call	_DelayXLCD	;wreg free
  1324   000956                     
  1325                           ;nxlcd.c: 70:    WriteCmdXLCD(0x30);
  1326   000956  0E30               	movlw	48
  1327   000958  ECB9  F005         	call	_WriteCmdXLCD
  1328   00095C                     
  1329                           ;nxlcd.c: 71:    DelayXLCD();
  1330   00095C  ECEC  F005         	call	_DelayXLCD	;wreg free
  1331   000960                     
  1332                           ;nxlcd.c: 72:    DelayXLCD();
  1333   000960  ECEC  F005         	call	_DelayXLCD	;wreg free
  1334   000964                     
  1335                           ;nxlcd.c: 73:    WriteCmdXLCD(0x32);
  1336   000964  0E32               	movlw	50
  1337   000966  ECB9  F005         	call	_WriteCmdXLCD
  1338   00096A                     l1120:
  1339   00096A  EC57  F005         	call	_BusyXLCD	;wreg free
  1340   00096E  0900               	iorlw	0
  1341   000970  A4D8               	btfss	status,2,c
  1342   000972  EFBD  F004         	goto	u21
  1343   000976  EFBF  F004         	goto	u20
  1344   00097A                     u21:
  1345   00097A  EFB5  F004         	goto	l1120
  1346   00097E                     u20:
  1347   00097E                     l1122:
  1348   00097E  EC57  F005         	call	_BusyXLCD	;wreg free
  1349   000982  0900               	iorlw	0
  1350   000984  A4D8               	btfss	status,2,c
  1351   000986  EFC7  F004         	goto	u31
  1352   00098A  EFC9  F004         	goto	u30
  1353   00098E                     u31:
  1354   00098E  EFBF  F004         	goto	l1122
  1355   000992                     u30:
  1356   000992                     
  1357                           ;nxlcd.c: 80:         WriteCmdXLCD(lcdtype);
  1358   000992  5007               	movf	OpenXLCD@lcdtype^0,w,c
  1359   000994  ECB9  F005         	call	_WriteCmdXLCD
  1360   000998                     l1126:
  1361   000998  EC57  F005         	call	_BusyXLCD	;wreg free
  1362   00099C  0900               	iorlw	0
  1363   00099E  A4D8               	btfss	status,2,c
  1364   0009A0  EFD4  F004         	goto	u41
  1365   0009A4  EFD6  F004         	goto	u40
  1366   0009A8                     u41:
  1367   0009A8  EFCC  F004         	goto	l1126
  1368   0009AC                     u40:
  1369   0009AC                     
  1370                           ;nxlcd.c: 84:         WriteCmdXLCD(0b00001011&0b00001101&0b00001110);
  1371   0009AC  0E08               	movlw	8
  1372   0009AE  ECB9  F005         	call	_WriteCmdXLCD
  1373   0009B2                     l1130:
  1374   0009B2  EC57  F005         	call	_BusyXLCD	;wreg free
  1375   0009B6  0900               	iorlw	0
  1376   0009B8  A4D8               	btfss	status,2,c
  1377   0009BA  EFE1  F004         	goto	u51
  1378   0009BE  EFE3  F004         	goto	u50
  1379   0009C2                     u51:
  1380   0009C2  EFD9  F004         	goto	l1130
  1381   0009C6                     u50:
  1382   0009C6                     
  1383                           ;nxlcd.c: 86:         WriteCmdXLCD(0b00001111&0b00001111&0b00001111);
  1384   0009C6  0E0F               	movlw	15
  1385   0009C8  ECB9  F005         	call	_WriteCmdXLCD
  1386   0009CC                     l1134:
  1387   0009CC  EC57  F005         	call	_BusyXLCD	;wreg free
  1388   0009D0  0900               	iorlw	0
  1389   0009D2  A4D8               	btfss	status,2,c
  1390   0009D4  EFEE  F004         	goto	u61
  1391   0009D8  EFF0  F004         	goto	u60
  1392   0009DC                     u61:
  1393   0009DC  EFE6  F004         	goto	l1134
  1394   0009E0                     u60:
  1395   0009E0                     
  1396                           ;nxlcd.c: 90:         WriteCmdXLCD(0x01);
  1397   0009E0  0E01               	movlw	1
  1398   0009E2  ECB9  F005         	call	_WriteCmdXLCD
  1399   0009E6                     l1138:
  1400   0009E6  EC57  F005         	call	_BusyXLCD	;wreg free
  1401   0009EA  0900               	iorlw	0
  1402   0009EC  A4D8               	btfss	status,2,c
  1403   0009EE  EFFB  F004         	goto	u71
  1404   0009F2  EFFD  F004         	goto	u70
  1405   0009F6                     u71:
  1406   0009F6  EFF3  F004         	goto	l1138
  1407   0009FA                     u70:
  1408   0009FA                     
  1409                           ;nxlcd.c: 94:         WriteCmdXLCD(0b00000100);
  1410   0009FA  0E04               	movlw	4
  1411   0009FC  ECB9  F005         	call	_WriteCmdXLCD
  1412   000A00                     l1142:
  1413   000A00  EC57  F005         	call	_BusyXLCD	;wreg free
  1414   000A04  0900               	iorlw	0
  1415   000A06  A4D8               	btfss	status,2,c
  1416   000A08  EF08  F005         	goto	u81
  1417   000A0C  EF0A  F005         	goto	u80
  1418   000A10                     u81:
  1419   000A10  EF00  F005         	goto	l1142
  1420   000A14                     u80:
  1421   000A14                     
  1422                           ;nxlcd.c: 98:         SetDDRamAddr(0x80);
  1423   000A14  0E80               	movlw	128
  1424   000A16  EC7A  F005         	call	_SetDDRamAddr
  1425   000A1A  0012               	return		;funcret
  1426   000A1C                     __end_of_OpenXLCD:
  1427                           	callstack 0
  1428                           
  1429 ;; *************** function _WriteCmdXLCD *****************
  1430 ;; Defined at:
  1431 ;;		line 388 in file "nxlcd.c"
  1432 ;; Parameters:    Size  Location     Type
  1433 ;;  cmd             1    wreg     unsigned char 
  1434 ;; Auto vars:     Size  Location     Type
  1435 ;;  cmd             1    4[COMRAM] unsigned char 
  1436 ;; Return value:  Size  Location     Type
  1437 ;;                  1    wreg      void 
  1438 ;; Registers used:
  1439 ;;		wreg, status,2, status,0, cstack
  1440 ;; Tracked objects:
  1441 ;;		On entry : 0/0
  1442 ;;		On exit  : 0/0
  1443 ;;		Unchanged: 0/0
  1444 ;; Data sizes:     COMRAM   BANK0   BANK1   BANK2   BANK3   BANK4   BANK5   BANK6   BANK7
  1445 ;;      Params:         0       0       0       0       0       0       0       0       0
  1446 ;;      Locals:         1       0       0       0       0       0       0       0       0
  1447 ;;      Temps:          0       0       0       0       0       0       0       0       0
  1448 ;;      Totals:         1       0       0       0       0       0       0       0       0
  1449 ;;Total ram usage:        1 bytes
  1450 ;; Hardware stack levels used: 1
  1451 ;; Hardware stack levels required when called: 2
  1452 ;; This function calls:
  1453 ;;		_DelayFor18TCY
  1454 ;; This function is called by:
  1455 ;;		_OpenXLCD
  1456 ;;		_main
  1457 ;; This function uses a non-reentrant model
  1458 ;;
  1459                           
  1460                           	psect	text4
  1461   000B72                     __ptext4:
  1462                           	callstack 0
  1463   000B72                     _WriteCmdXLCD:
  1464                           	callstack 27
  1465                           
  1466                           ;incstack = 0
  1467                           ;WriteCmdXLCD@cmd stored from wreg
  1468   000B72  6E06               	movwf	WriteCmdXLCD@cmd^0,c
  1469   000B74                     
  1470                           ;nxlcd.c: 388: void WriteCmdXLCD(unsigned char cmd);nxlcd.c: 389: {;nxlcd.c: 403:       
      +                            TRISD &= 0x0f;
  1471   000B74  0E0F               	movlw	15
  1472   000B76  1695               	andwf	149,f,c	;volatile
  1473                           
  1474                           ;nxlcd.c: 404:         PORTD &= 0x0f;
  1475   000B78  0E0F               	movlw	15
  1476   000B7A  1683               	andwf	131,f,c	;volatile
  1477                           
  1478                           ;nxlcd.c: 405:         PORTD |= cmd&0xf0;
  1479   000B7C  5006               	movf	WriteCmdXLCD@cmd^0,w,c
  1480   000B7E  0BF0               	andlw	240
  1481   000B80  1283               	iorwf	131,f,c	;volatile
  1482   000B82                     
  1483                           ;nxlcd.c: 411:         LATEbits.LATE2 = 0;
  1484   000B82  948D               	bcf	141,2,c	;volatile
  1485   000B84                     
  1486                           ;nxlcd.c: 412:         LATEbits.LATE0 = 0;
  1487   000B84  908D               	bcf	141,0,c	;volatile
  1488   000B86                     
  1489                           ;nxlcd.c: 413:         DelayFor18TCY();
  1490   000B86  ECFD  F005         	call	_DelayFor18TCY	;wreg free
  1491   000B8A                     
  1492                           ;nxlcd.c: 414:         LATEbits.LATE1 = 1;
  1493   000B8A  828D               	bsf	141,1,c	;volatile
  1494   000B8C                     
  1495                           ;nxlcd.c: 415:         DelayFor18TCY();
  1496   000B8C  ECFD  F005         	call	_DelayFor18TCY	;wreg free
  1497   000B90                     
  1498                           ;nxlcd.c: 416:         LATEbits.LATE1 = 0;
  1499   000B90  928D               	bcf	141,1,c	;volatile
  1500                           
  1501                           ;nxlcd.c: 418:         PORTD &= 0x0f;
  1502   000B92  0E0F               	movlw	15
  1503   000B94  1683               	andwf	131,f,c	;volatile
  1504                           
  1505                           ;nxlcd.c: 419:         PORTD |= (cmd<<4)&0xf0;
  1506   000B96  3806               	swapf	WriteCmdXLCD@cmd^0,w,c
  1507   000B98  0BF0               	andlw	240
  1508   000B9A  0BF0               	andlw	240
  1509   000B9C  1283               	iorwf	131,f,c	;volatile
  1510   000B9E                     
  1511                           ;nxlcd.c: 424:         DelayFor18TCY();
  1512   000B9E  ECFD  F005         	call	_DelayFor18TCY	;wreg free
  1513   000BA2                     
  1514                           ;nxlcd.c: 425:         LATEbits.LATE1 = 1;
  1515   000BA2  828D               	bsf	141,1,c	;volatile
  1516   000BA4                     
  1517                           ;nxlcd.c: 426:         DelayFor18TCY();
  1518   000BA4  ECFD  F005         	call	_DelayFor18TCY	;wreg free
  1519   000BA8                     
  1520                           ;nxlcd.c: 427:         LATEbits.LATE1 = 0;
  1521   000BA8  928D               	bcf	141,1,c	;volatile
  1522                           
  1523                           ;nxlcd.c: 429:         TRISD |= 0xf0;
  1524   000BAA  0EF0               	movlw	240
  1525   000BAC  1295               	iorwf	149,f,c	;volatile
  1526   000BAE  0012               	return		;funcret
  1527   000BB0                     __end_of_WriteCmdXLCD:
  1528                           	callstack 0
  1529                           
  1530 ;; *************** function _SetDDRamAddr *****************
  1531 ;; Defined at:
  1532 ;;		line 171 in file "nxlcd.c"
  1533 ;; Parameters:    Size  Location     Type
  1534 ;;  DDaddr          1    wreg     unsigned char 
  1535 ;; Auto vars:     Size  Location     Type
  1536 ;;  DDaddr          1    4[COMRAM] unsigned char 
  1537 ;; Return value:  Size  Location     Type
  1538 ;;                  1    wreg      void 
  1539 ;; Registers used:
  1540 ;;		wreg, status,2, status,0, cstack
  1541 ;; Tracked objects:
  1542 ;;		On entry : 0/0
  1543 ;;		On exit  : 0/0
  1544 ;;		Unchanged: 0/0
  1545 ;; Data sizes:     COMRAM   BANK0   BANK1   BANK2   BANK3   BANK4   BANK5   BANK6   BANK7
  1546 ;;      Params:         0       0       0       0       0       0       0       0       0
  1547 ;;      Locals:         1       0       0       0       0       0       0       0       0
  1548 ;;      Temps:          0       0       0       0       0       0       0       0       0
  1549 ;;      Totals:         1       0       0       0       0       0       0       0       0
  1550 ;;Total ram usage:        1 bytes
  1551 ;; Hardware stack levels used: 1
  1552 ;; Hardware stack levels required when called: 3
  1553 ;; This function calls:
  1554 ;;		_DelayFor18TCY
  1555 ;; This function is called by:
  1556 ;;		_OpenXLCD
  1557 ;; This function uses a non-reentrant model
  1558 ;;
  1559                           
  1560                           	psect	text5
  1561   000AF4                     __ptext5:
  1562                           	callstack 0
  1563   000AF4                     _SetDDRamAddr:
  1564                           	callstack 26
  1565                           
  1566                           ;incstack = 0
  1567                           ;SetDDRamAddr@DDaddr stored from wreg
  1568   000AF4  6E06               	movwf	SetDDRamAddr@DDaddr^0,c
  1569   000AF6                     
  1570                           ;nxlcd.c: 171: void SetDDRamAddr(unsigned char DDaddr);nxlcd.c: 172: {;nxlcd.c: 186:    
      +                               TRISD &= 0x0f;
  1571   000AF6  0E0F               	movlw	15
  1572   000AF8  1695               	andwf	149,f,c	;volatile
  1573                           
  1574                           ;nxlcd.c: 187:         PORTD &= 0x0f;
  1575   000AFA  0E0F               	movlw	15
  1576   000AFC  1683               	andwf	131,f,c	;volatile
  1577                           
  1578                           ;nxlcd.c: 188:         PORTD |= ((DDaddr | 0b10000000) & 0xf0);
  1579   000AFE  5006               	movf	SetDDRamAddr@DDaddr^0,w,c
  1580   000B00  0980               	iorlw	128
  1581   000B02  0BF0               	andlw	240
  1582   000B04  1283               	iorwf	131,f,c	;volatile
  1583   000B06                     
  1584                           ;nxlcd.c: 194:         LATEbits.LATE2 = 0;
  1585   000B06  948D               	bcf	141,2,c	;volatile
  1586   000B08                     
  1587                           ;nxlcd.c: 195:         LATEbits.LATE0 = 0;
  1588   000B08  908D               	bcf	141,0,c	;volatile
  1589   000B0A                     
  1590                           ;nxlcd.c: 196:         DelayFor18TCY();
  1591   000B0A  ECFD  F005         	call	_DelayFor18TCY	;wreg free
  1592   000B0E                     
  1593                           ;nxlcd.c: 197:         LATEbits.LATE1 = 1;
  1594   000B0E  828D               	bsf	141,1,c	;volatile
  1595   000B10                     
  1596                           ;nxlcd.c: 198:         DelayFor18TCY();
  1597   000B10  ECFD  F005         	call	_DelayFor18TCY	;wreg free
  1598   000B14                     
  1599                           ;nxlcd.c: 199:         LATEbits.LATE1 = 0;
  1600   000B14  928D               	bcf	141,1,c	;volatile
  1601                           
  1602                           ;nxlcd.c: 201:         PORTD &= 0x0f;
  1603   000B16  0E0F               	movlw	15
  1604   000B18  1683               	andwf	131,f,c	;volatile
  1605                           
  1606                           ;nxlcd.c: 202:         PORTD |= ((DDaddr<<4)&0xf0);
  1607   000B1A  3806               	swapf	SetDDRamAddr@DDaddr^0,w,c
  1608   000B1C  0BF0               	andlw	240
  1609   000B1E  0BF0               	andlw	240
  1610   000B20  1283               	iorwf	131,f,c	;volatile
  1611   000B22                     
  1612                           ;nxlcd.c: 207:         DelayFor18TCY();
  1613   000B22  ECFD  F005         	call	_DelayFor18TCY	;wreg free
  1614   000B26                     
  1615                           ;nxlcd.c: 208:         LATEbits.LATE1 = 1;
  1616   000B26  828D               	bsf	141,1,c	;volatile
  1617   000B28                     
  1618                           ;nxlcd.c: 209:         DelayFor18TCY();
  1619   000B28  ECFD  F005         	call	_DelayFor18TCY	;wreg free
  1620   000B2C                     
  1621                           ;nxlcd.c: 210:         LATEbits.LATE1 = 0;
  1622   000B2C  928D               	bcf	141,1,c	;volatile
  1623                           
  1624                           ;nxlcd.c: 212:         TRISD |= 0xf0;
  1625   000B2E  0EF0               	movlw	240
  1626   000B30  1295               	iorwf	149,f,c	;volatile
  1627   000B32  0012               	return		;funcret
  1628   000B34                     __end_of_SetDDRamAddr:
  1629                           	callstack 0
  1630                           
  1631 ;; *************** function _DelayXLCD *****************
  1632 ;; Defined at:
  1633 ;;		line 22 in file "nxlcd.c"
  1634 ;; Parameters:    Size  Location     Type
  1635 ;;		None
  1636 ;; Auto vars:     Size  Location     Type
  1637 ;;		None
  1638 ;; Return value:  Size  Location     Type
  1639 ;;                  1    wreg      void 
  1640 ;; Registers used:
  1641 ;;		wreg
  1642 ;; Tracked objects:
  1643 ;;		On entry : 0/0
  1644 ;;		On exit  : 0/0
  1645 ;;		Unchanged: 0/0
  1646 ;; Data sizes:     COMRAM   BANK0   BANK1   BANK2   BANK3   BANK4   BANK5   BANK6   BANK7
  1647 ;;      Params:         0       0       0       0       0       0       0       0       0
  1648 ;;      Locals:         0       0       0       0       0       0       0       0       0
  1649 ;;      Temps:          1       0       0       0       0       0       0       0       0
  1650 ;;      Totals:         1       0       0       0       0       0       0       0       0
  1651 ;;Total ram usage:        1 bytes
  1652 ;; Hardware stack levels used: 1
  1653 ;; Hardware stack levels required when called: 2
  1654 ;; This function calls:
  1655 ;;		Nothing
  1656 ;; This function is called by:
  1657 ;;		_OpenXLCD
  1658 ;; This function uses a non-reentrant model
  1659 ;;
  1660                           
  1661                           	psect	text6
  1662   000BD8                     __ptext6:
  1663                           	callstack 0
  1664   000BD8                     _DelayXLCD:
  1665                           	callstack 27
  1666   000BD8                     
  1667                           ;nxlcd.c: 24:     _delay((unsigned long)((5)*(20000000/4000.0)));
  1668   000BD8  0E21               	movlw	33
  1669   000BDA  6E06               	movwf	??_DelayXLCD^0,c
  1670   000BDC  0E76               	movlw	118
  1671   000BDE                     u257:
  1672   000BDE  2EE8               	decfsz	wreg,f,c
  1673   000BE0  D7FE               	bra	u257
  1674   000BE2  2E06               	decfsz	??_DelayXLCD^0,f,c
  1675   000BE4  D7FC               	bra	u257
  1676   000BE6  D000               	nop2	
  1677   000BE8  0012               	return		;funcret
  1678   000BEA                     __end_of_DelayXLCD:
  1679                           	callstack 0
  1680                           
  1681 ;; *************** function _DelayPORXLCD *****************
  1682 ;; Defined at:
  1683 ;;		line 17 in file "nxlcd.c"
  1684 ;; Parameters:    Size  Location     Type
  1685 ;;		None
  1686 ;; Auto vars:     Size  Location     Type
  1687 ;;		None
  1688 ;; Return value:  Size  Location     Type
  1689 ;;                  1    wreg      void 
  1690 ;; Registers used:
  1691 ;;		wreg
  1692 ;; Tracked objects:
  1693 ;;		On entry : 0/0
  1694 ;;		On exit  : 0/0
  1695 ;;		Unchanged: 0/0
  1696 ;; Data sizes:     COMRAM   BANK0   BANK1   BANK2   BANK3   BANK4   BANK5   BANK6   BANK7
  1697 ;;      Params:         0       0       0       0       0       0       0       0       0
  1698 ;;      Locals:         0       0       0       0       0       0       0       0       0
  1699 ;;      Temps:          1       0       0       0       0       0       0       0       0
  1700 ;;      Totals:         1       0       0       0       0       0       0       0       0
  1701 ;;Total ram usage:        1 bytes
  1702 ;; Hardware stack levels used: 1
  1703 ;; Hardware stack levels required when called: 2
  1704 ;; This function calls:
  1705 ;;		Nothing
  1706 ;; This function is called by:
  1707 ;;		_OpenXLCD
  1708 ;; This function uses a non-reentrant model
  1709 ;;
  1710                           
  1711                           	psect	text7
  1712   000BEA                     __ptext7:
  1713                           	callstack 0
  1714   000BEA                     _DelayPORXLCD:
  1715                           	callstack 27
  1716   000BEA                     
  1717                           ;nxlcd.c: 19:     _delay((unsigned long)((15)*(20000000/4000.0)));
  1718   000BEA  0E62               	movlw	98
  1719   000BEC  6E06               	movwf	??_DelayPORXLCD^0,c
  1720   000BEE  0E66               	movlw	102
  1721   000BF0                     u267:
  1722   000BF0  2EE8               	decfsz	wreg,f,c
  1723   000BF2  D7FE               	bra	u267
  1724   000BF4  2E06               	decfsz	??_DelayPORXLCD^0,f,c
  1725   000BF6  D7FC               	bra	u267
  1726   000BF8  0012               	return		;funcret
  1727   000BFA                     __end_of_DelayPORXLCD:
  1728                           	callstack 0
  1729                           
  1730 ;; *************** function _BusyXLCD *****************
  1731 ;; Defined at:
  1732 ;;		line 227 in file "nxlcd.c"
  1733 ;; Parameters:    Size  Location     Type
  1734 ;;		None
  1735 ;; Auto vars:     Size  Location     Type
  1736 ;;		None
  1737 ;; Return value:  Size  Location     Type
  1738 ;;                  1    wreg      unsigned char 
  1739 ;; Registers used:
  1740 ;;		wreg, cstack
  1741 ;; Tracked objects:
  1742 ;;		On entry : 0/0
  1743 ;;		On exit  : 0/0
  1744 ;;		Unchanged: 0/0
  1745 ;; Data sizes:     COMRAM   BANK0   BANK1   BANK2   BANK3   BANK4   BANK5   BANK6   BANK7
  1746 ;;      Params:         0       0       0       0       0       0       0       0       0
  1747 ;;      Locals:         0       0       0       0       0       0       0       0       0
  1748 ;;      Temps:          0       0       0       0       0       0       0       0       0
  1749 ;;      Totals:         0       0       0       0       0       0       0       0       0
  1750 ;;Total ram usage:        0 bytes
  1751 ;; Hardware stack levels used: 1
  1752 ;; Hardware stack levels required when called: 2
  1753 ;; This function calls:
  1754 ;;		_DelayFor18TCY
  1755 ;; This function is called by:
  1756 ;;		_OpenXLCD
  1757 ;;		_putrsXLCD
  1758 ;;		_putsXLCD
  1759 ;; This function uses a non-reentrant model
  1760 ;;
  1761                           
  1762                           	psect	text8
  1763   000AAE                     __ptext8:
  1764                           	callstack 0
  1765   000AAE                     _BusyXLCD:
  1766                           	callstack 27
  1767   000AAE                     
  1768                           ;nxlcd.c: 229:         LATEbits.LATE2 = 1;
  1769   000AAE  848D               	bsf	141,2,c	;volatile
  1770                           
  1771                           ;nxlcd.c: 230:         LATEbits.LATE0 = 0;
  1772   000AB0  908D               	bcf	141,0,c	;volatile
  1773   000AB2                     
  1774                           ;nxlcd.c: 231:         DelayFor18TCY();
  1775   000AB2  ECFD  F005         	call	_DelayFor18TCY	;wreg free
  1776   000AB6                     
  1777                           ;nxlcd.c: 232:         LATEbits.LATE1 = 1;
  1778   000AB6  828D               	bsf	141,1,c	;volatile
  1779                           
  1780                           ;nxlcd.c: 233:         DelayFor18TCY();
  1781   000AB8  ECFD  F005         	call	_DelayFor18TCY	;wreg free
  1782   000ABC                     
  1783                           ;nxlcd.c: 249:         if(PORTD&0x80)
  1784   000ABC  AE83               	btfss	131,7,c	;volatile
  1785   000ABE  EF63  F005         	goto	u11
  1786   000AC2  EF65  F005         	goto	u10
  1787   000AC6                     u11:
  1788   000AC6  EF70  F005         	goto	l58
  1789   000ACA                     u10:
  1790   000ACA                     
  1791                           ;nxlcd.c: 253:         {;nxlcd.c: 254:                 LATEbits.LATE1 = 0;
  1792   000ACA  928D               	bcf	141,1,c	;volatile
  1793   000ACC                     
  1794                           ;nxlcd.c: 255:                 DelayFor18TCY();
  1795   000ACC  ECFD  F005         	call	_DelayFor18TCY	;wreg free
  1796   000AD0                     
  1797                           ;nxlcd.c: 256:                 LATEbits.LATE1 = 1;
  1798   000AD0  828D               	bsf	141,1,c	;volatile
  1799                           
  1800                           ;nxlcd.c: 257:                 DelayFor18TCY();
  1801   000AD2  ECFD  F005         	call	_DelayFor18TCY	;wreg free
  1802   000AD6                     
  1803                           ;nxlcd.c: 258:                 LATEbits.LATE1 = 0;
  1804   000AD6  928D               	bcf	141,1,c	;volatile
  1805   000AD8                     
  1806                           ;nxlcd.c: 259:                 LATEbits.LATE2 = 0;
  1807   000AD8  948D               	bcf	141,2,c	;volatile
  1808   000ADA                     
  1809                           ;nxlcd.c: 260:                 return 1;
  1810   000ADA  0E01               	movlw	1
  1811   000ADC  EF79  F005         	goto	l59
  1812   000AE0                     l58:
  1813                           
  1814                           ;nxlcd.c: 263:         {;nxlcd.c: 264:                 LATEbits.LATE1 = 0;
  1815   000AE0  928D               	bcf	141,1,c	;volatile
  1816   000AE2                     
  1817                           ;nxlcd.c: 265:                 DelayFor18TCY();
  1818   000AE2  ECFD  F005         	call	_DelayFor18TCY	;wreg free
  1819   000AE6                     
  1820                           ;nxlcd.c: 266:                 LATEbits.LATE1 = 1;
  1821   000AE6  828D               	bsf	141,1,c	;volatile
  1822                           
  1823                           ;nxlcd.c: 267:                 DelayFor18TCY();
  1824   000AE8  ECFD  F005         	call	_DelayFor18TCY	;wreg free
  1825   000AEC                     
  1826                           ;nxlcd.c: 268:                 LATEbits.LATE1 = 0;
  1827   000AEC  928D               	bcf	141,1,c	;volatile
  1828   000AEE                     
  1829                           ;nxlcd.c: 269:                 LATEbits.LATE2 = 0;
  1830   000AEE  948D               	bcf	141,2,c	;volatile
  1831   000AF0                     
  1832                           ;nxlcd.c: 270:                 return 0;
  1833   000AF0  0E00               	movlw	0
  1834   000AF2                     l59:
  1835   000AF2  0012               	return		;funcret
  1836   000AF4                     __end_of_BusyXLCD:
  1837                           	callstack 0
  1838                           
  1839 ;; *************** function _DelayFor18TCY *****************
  1840 ;; Defined at:
  1841 ;;		line 12 in file "nxlcd.c"
  1842 ;; Parameters:    Size  Location     Type
  1843 ;;		None
  1844 ;; Auto vars:     Size  Location     Type
  1845 ;;		None
  1846 ;; Return value:  Size  Location     Type
  1847 ;;                  1    wreg      void 
  1848 ;; Registers used:
  1849 ;;		wreg
  1850 ;; Tracked objects:
  1851 ;;		On entry : 0/0
  1852 ;;		On exit  : 0/0
  1853 ;;		Unchanged: 0/0
  1854 ;; Data sizes:     COMRAM   BANK0   BANK1   BANK2   BANK3   BANK4   BANK5   BANK6   BANK7
  1855 ;;      Params:         0       0       0       0       0       0       0       0       0
  1856 ;;      Locals:         0       0       0       0       0       0       0       0       0
  1857 ;;      Temps:          0       0       0       0       0       0       0       0       0
  1858 ;;      Totals:         0       0       0       0       0       0       0       0       0
  1859 ;;Total ram usage:        0 bytes
  1860 ;; Hardware stack levels used: 1
  1861 ;; Hardware stack levels required when called: 2
  1862 ;; This function calls:
  1863 ;;		Nothing
  1864 ;; This function is called by:
  1865 ;;		_SetDDRamAddr
  1866 ;;		_BusyXLCD
  1867 ;;		_WriteCmdXLCD
  1868 ;;		_WriteDataXLCD
  1869 ;;		_SetCGRamAddr
  1870 ;;		_ReadAddrXLCD
  1871 ;;		_ReadDataXLCD
  1872 ;; This function uses a non-reentrant model
  1873 ;;
  1874                           
  1875                           	psect	text9
  1876   000BFA                     __ptext9:
  1877                           	callstack 0
  1878   000BFA                     _DelayFor18TCY:
  1879                           	callstack 26
  1880   000BFA                     
  1881                           ;nxlcd.c: 14:     _delay((unsigned long)((20)*(20000000/4000000.0)));
  1882   000BFA  0E21               	movlw	33
  1883   000BFC                     u277:
  1884   000BFC  2EE8               	decfsz	wreg,f,c
  1885   000BFE  D7FE               	bra	u277
  1886   000C00  0000               	nop	
  1887   000C02  0012               	return		;funcret
  1888   000C04                     __end_of_DelayFor18TCY:
  1889                           	callstack 0
  1890                           
  1891 ;; *************** function _ISR_Baixa_Prioridade *****************
  1892 ;; Defined at:
  1893 ;;		line 36 in file "isr.c"
  1894 ;; Parameters:    Size  Location     Type
  1895 ;;		None
  1896 ;; Auto vars:     Size  Location     Type
  1897 ;;		None
  1898 ;; Return value:  Size  Location     Type
  1899 ;;                  1    wreg      void 
  1900 ;; Registers used:
  1901 ;;		wreg, status,2, status,0
  1902 ;; Tracked objects:
  1903 ;;		On entry : 0/0
  1904 ;;		On exit  : 0/0
  1905 ;;		Unchanged: 0/0
  1906 ;; Data sizes:     COMRAM   BANK0   BANK1   BANK2   BANK3   BANK4   BANK5   BANK6   BANK7
  1907 ;;      Params:         0       0       0       0       0       0       0       0       0
  1908 ;;      Locals:         0       0       0       0       0       0       0       0       0
  1909 ;;      Temps:          3       0       0       0       0       0       0       0       0
  1910 ;;      Totals:         3       0       0       0       0       0       0       0       0
  1911 ;;Total ram usage:        3 bytes
  1912 ;; Hardware stack levels used: 1
  1913 ;; Hardware stack levels required when called: 1
  1914 ;; This function calls:
  1915 ;;		Nothing
  1916 ;; This function is called by:
  1917 ;;		Interrupt level 1
  1918 ;; This function uses a non-reentrant model
  1919 ;;
  1920                           
  1921                           	psect	intcodelo
  1922   000018                     __pintcodelo:
  1923                           	callstack 0
  1924   000018                     _ISR_Baixa_Prioridade:
  1925                           	callstack 26
  1926                           
  1927                           ;incstack = 0
  1928   000018  8001               	bsf	int$flags,0,c	;set compiler interrupt flag (level 1)
  1929   00001A  CFD8 F003          	movff	status,??_ISR_Baixa_Prioridade
  1930   00001E  CFE8 F004          	movff	wreg,??_ISR_Baixa_Prioridade+1
  1931   000022  CFE0 F005          	movff	bsr,??_ISR_Baixa_Prioridade+2
  1932   000026                     
  1933                           ;isr.c: 39:         if (INTCON3bits.INT1IF){
  1934   000026  A0F0               	btfss	240,0,c	;volatile
  1935   000028  EF18  F000         	goto	i1u16_21
  1936   00002C  EF1A  F000         	goto	i1u16_20
  1937   000030                     i1u16_21:
  1938   000030  EF29  F000         	goto	i1l185
  1939   000034                     i1u16_20:
  1940   000034                     
  1941                           ;isr.c: 40:         menu++;
  1942   000034  2A0A               	incf	_menu^0,f,c
  1943   000036                     
  1944                           ;isr.c: 41:         if (menu == 5)
  1945   000036  0E05               	movlw	5
  1946   000038  180A               	xorwf	_menu^0,w,c
  1947   00003A  A4D8               	btfss	status,2,c
  1948   00003C  EF22  F000         	goto	i1u17_21
  1949   000040  EF24  F000         	goto	i1u17_20
  1950   000044                     i1u17_21:
  1951   000044  EF26  F000         	goto	i1l1346
  1952   000048                     i1u17_20:
  1953   000048                     
  1954                           ;isr.c: 42:         menu = 1;
  1955   000048  0E01               	movlw	1
  1956   00004A  6E0A               	movwf	_menu^0,c
  1957   00004C                     i1l1346:
  1958                           
  1959                           ;isr.c: 43:         INTCON3bits.INT1IF = 0;
  1960   00004C  90F0               	bcf	240,0,c	;volatile
  1961                           
  1962                           ;isr.c: 44:         }
  1963   00004E  EF3C  F000         	goto	i1l190
  1964   000052                     i1l185:
  1965   000052  A2F0               	btfss	240,1,c	;volatile
  1966   000054  EF2E  F000         	goto	i1u18_21
  1967   000058  EF30  F000         	goto	i1u18_20
  1968   00005C                     i1u18_21:
  1969   00005C  EF3C  F000         	goto	i1l190
  1970   000060                     i1u18_20:
  1971   000060                     
  1972                           ;isr.c: 47:         menu--;
  1973   000060  060A               	decf	_menu^0,f,c
  1974   000062                     
  1975                           ;isr.c: 48:         if (menu == 0)
  1976   000062  500A               	movf	_menu^0,w,c
  1977   000064  A4D8               	btfss	status,2,c
  1978   000066  EF37  F000         	goto	i1u19_21
  1979   00006A  EF39  F000         	goto	i1u19_20
  1980   00006E                     i1u19_21:
  1981   00006E  EF3B  F000         	goto	i1l1354
  1982   000072                     i1u19_20:
  1983   000072                     
  1984                           ;isr.c: 49:             menu = 3;
  1985   000072  0E03               	movlw	3
  1986   000074  6E0A               	movwf	_menu^0,c
  1987   000076                     i1l1354:
  1988                           
  1989                           ;isr.c: 50:             INTCON3bits.INT2IF = 0;
  1990   000076  92F0               	bcf	240,1,c	;volatile
  1991   000078                     i1l190:
  1992   000078  C005  FFE0         	movff	??_ISR_Baixa_Prioridade+2,bsr
  1993   00007C  C004  FFE8         	movff	??_ISR_Baixa_Prioridade+1,wreg
  1994   000080  C003  FFD8         	movff	??_ISR_Baixa_Prioridade,status
  1995   000084  9001               	bcf	int$flags,0,c	;clear compiler interrupt flag (level 1)
  1996   000086  0010               	retfie	
  1997   000088                     __end_of_ISR_Baixa_Prioridade:
  1998                           	callstack 0
  1999                           
  2000 ;; *************** function _ISR_Alta_Prioridade *****************
  2001 ;; Defined at:
  2002 ;;		line 8 in file "isr.c"
  2003 ;; Parameters:    Size  Location     Type
  2004 ;;		None
  2005 ;; Auto vars:     Size  Location     Type
  2006 ;;		None
  2007 ;; Return value:  Size  Location     Type
  2008 ;;                  1    wreg      void 
  2009 ;; Registers used:
  2010 ;;		wreg, status,2, status,0
  2011 ;; Tracked objects:
  2012 ;;		On entry : 0/0
  2013 ;;		On exit  : 0/0
  2014 ;;		Unchanged: 0/0
  2015 ;; Data sizes:     COMRAM   BANK0   BANK1   BANK2   BANK3   BANK4   BANK5   BANK6   BANK7
  2016 ;;      Params:         0       0       0       0       0       0       0       0       0
  2017 ;;      Locals:         0       0       0       0       0       0       0       0       0
  2018 ;;      Temps:          1       0       0       0       0       0       0       0       0
  2019 ;;      Totals:         1       0       0       0       0       0       0       0       0
  2020 ;;Total ram usage:        1 bytes
  2021 ;; Hardware stack levels used: 1
  2022 ;; This function calls:
  2023 ;;		Nothing
  2024 ;; This function is called by:
  2025 ;;		Interrupt level 2
  2026 ;; This function uses a non-reentrant model
  2027 ;;
  2028                           
  2029                           	psect	intcode
  2030   000008                     __pintcode:
  2031                           	callstack 0
  2032   000008                     _ISR_Alta_Prioridade:
  2033                           	callstack 26
  2034                           
  2035                           ;incstack = 0
  2036   000008  8201               	bsf	int$flags,1,c	;set compiler interrupt flag (level 2)
  2037   00000A  ED0E  F005         	call	int_func,f	;refresh shadow registers
  2038                           
  2039                           	psect	intcode_body
  2040   000A1C                     __pintcode_body:
  2041                           	callstack 26
  2042   000A1C                     int_func:
  2043                           	callstack 26
  2044   000A1C  0006               	pop		; remove dummy address from shadow register refresh
  2045   000A1E                     
  2046                           ;isr.c: 10:     PIR1bits.CCP1IF = 0;
  2047   000A1E  949E               	bcf	158,2,c	;volatile
  2048   000A20                     
  2049                           ;isr.c: 11:     LATCbits.LATC2 = !LATCbits.LATC2;
  2050   000A20  A48B               	btfss	139,2,c	;volatile
  2051   000A22  EF15  F005         	goto	i2u14_41
  2052   000A26  EF19  F005         	goto	i2u14_40
  2053   000A2A                     i2u14_41:
  2054   000A2A  6A02               	clrf	??_ISR_Alta_Prioridade^0,c
  2055   000A2C  2A02               	incf	??_ISR_Alta_Prioridade^0,f,c
  2056   000A2E  EF1A  F005         	goto	i2u15_48
  2057   000A32                     i2u14_40:
  2058   000A32  6A02               	clrf	??_ISR_Alta_Prioridade^0,c
  2059   000A34                     i2u15_48:
  2060   000A34  4602               	rlncf	??_ISR_Alta_Prioridade^0,f,c
  2061   000A36  4602               	rlncf	??_ISR_Alta_Prioridade^0,f,c
  2062   000A38  508B               	movf	139,w,c	;volatile
  2063   000A3A  1802               	xorwf	??_ISR_Alta_Prioridade^0,w,c
  2064   000A3C  0BFB               	andlw	-5
  2065   000A3E  1802               	xorwf	??_ISR_Alta_Prioridade^0,w,c
  2066   000A40  6E8B               	movwf	139,c	;volatile
  2067   000A42  500A               	movf	_menu^0,w,c
  2068                           
  2069                           ; Switch size 1, requested type "simple"
  2070                           ; Number of cases is 3, Range of values is 1 to 3
  2071                           ; switch strategies available:
  2072                           ; Name         Instructions Cycles
  2073                           ; simple_byte           10     6 (average)
  2074                           ;	Chosen strategy is simple_byte
  2075   000A44  0A01               	xorlw	1	; case 1
  2076   000A46  B4D8               	btfsc	status,2,c
  2077   000A48  EF30  F005         	goto	i2l177
  2078   000A4C  0A03               	xorlw	3	; case 2
  2079   000A4E  B4D8               	btfsc	status,2,c
  2080   000A50  EF30  F005         	goto	i2l177
  2081   000A54  0A01               	xorlw	1	; case 3
  2082   000A56  B4D8               	btfsc	status,2,c
  2083   000A58  EF30  F005         	goto	i2l177
  2084   000A5C  EF30  F005         	goto	i2l177
  2085   000A60                     i2l177:
  2086                           
  2087                           ;isr.c: 27:             INTCONbits.INT0IF = 0;
  2088   000A60  92F2               	bcf	242,1,c	;volatile
  2089   000A62  9201               	bcf	int$flags,1,c	;clear compiler interrupt flag (level 2)
  2090   000A64  0011               	retfie		f
  2091   000A66                     __end_of_ISR_Alta_Prioridade:
  2092                           	callstack 0
  2093                           
  2094                           	psect	rparam
  2095   000001                     ___rparam_used  equ	1
  2096   000000                     ___param_bank   equ	0
  2097   000000                     __Lparam        equ	__Lrparam
  2098   000000                     __Hparam        equ	__Hrparam
  2099   000001                     btemp           set	1	;btemp
  2100   000001                     int$flags       set	1
  2101   000001                     btemp0          set	1
  2102   000002                     btemp1          set	2
  2103                           
  2104                           	psect	idloc
  2105                           
  2106                           ;Config register IDLOC0 @ 0x200000
  2107                           ;	unspecified, using default values
  2108   200000                     	org	2097152
  2109   200000  FF                 	db	255
  2110                           
  2111                           ;Config register IDLOC1 @ 0x200001
  2112                           ;	unspecified, using default values
  2113   200001                     	org	2097153
  2114   200001  FF                 	db	255
  2115                           
  2116                           ;Config register IDLOC2 @ 0x200002
  2117                           ;	unspecified, using default values
  2118   200002                     	org	2097154
  2119   200002  FF                 	db	255
  2120                           
  2121                           ;Config register IDLOC3 @ 0x200003
  2122                           ;	unspecified, using default values
  2123   200003                     	org	2097155
  2124   200003  FF                 	db	255
  2125                           
  2126                           ;Config register IDLOC4 @ 0x200004
  2127                           ;	unspecified, using default values
  2128   200004                     	org	2097156
  2129   200004  FF                 	db	255
  2130                           
  2131                           ;Config register IDLOC5 @ 0x200005
  2132                           ;	unspecified, using default values
  2133   200005                     	org	2097157
  2134   200005  FF                 	db	255
  2135                           
  2136                           ;Config register IDLOC6 @ 0x200006
  2137                           ;	unspecified, using default values
  2138   200006                     	org	2097158
  2139   200006  FF                 	db	255
  2140                           
  2141                           ;Config register IDLOC7 @ 0x200007
  2142                           ;	unspecified, using default values
  2143   200007                     	org	2097159
  2144   200007  FF                 	db	255
  2145                           
  2146                           	psect	config
  2147                           
  2148                           ;Config register CONFIG1L @ 0x300000
  2149                           ;	PLL Prescaler Selection bits
  2150                           ;	PLLDIV = 0x0, unprogrammed default
  2151                           ;	System Clock Postscaler Selection bits
  2152                           ;	CPUDIV = OSC1_PLL2, [Primary Oscillator Src: /1][96 MHz PLL Src: /2]
  2153                           ;	USB Clock Selection bit (used in Full-Speed USB mode only; UCFG:FSEN = 1)
  2154                           ;	USBDIV = 0x0, unprogrammed default
  2155   300000                     	org	3145728
  2156   300000  00                 	db	0
  2157                           
  2158                           ;Config register CONFIG1H @ 0x300001
  2159                           ;	Oscillator Selection bits
  2160                           ;	FOSC = HS, HS oscillator (HS)
  2161                           ;	Fail-Safe Clock Monitor Enable bit
  2162                           ;	FCMEN = 0x0, unprogrammed default
  2163                           ;	Internal/External Oscillator Switchover bit
  2164                           ;	IESO = 0x0, unprogrammed default
  2165   300001                     	org	3145729
  2166   300001  0C                 	db	12
  2167                           
  2168                           ;Config register CONFIG2L @ 0x300002
  2169                           ;	unspecified, using default values
  2170                           ;	Power-up Timer Enable bit
  2171                           ;	PWRT = 0x1, unprogrammed default
  2172                           ;	Brown-out Reset Enable bits
  2173                           ;	BOR = 0x3, unprogrammed default
  2174                           ;	Brown-out Reset Voltage bits
  2175                           ;	BORV = 0x3, unprogrammed default
  2176                           ;	USB Voltage Regulator Enable bit
  2177                           ;	VREGEN = 0x0, unprogrammed default
  2178   300002                     	org	3145730
  2179   300002  1F                 	db	31
  2180                           
  2181                           ;Config register CONFIG2H @ 0x300003
  2182                           ;	Watchdog Timer Enable bit
  2183                           ;	WDT = ON, WDT enabled
  2184                           ;	Watchdog Timer Postscale Select bits
  2185                           ;	WDTPS = 512, 1:512
  2186   300003                     	org	3145731
  2187   300003  13                 	db	19
  2188                           
  2189                           ; Padding undefined space
  2190   300004                     	org	3145732
  2191   300004  FF                 	db	255
  2192                           
  2193                           ;Config register CONFIG3H @ 0x300005
  2194                           ;	CCP2 MUX bit
  2195                           ;	CCP2MX = 0x1, unprogrammed default
  2196                           ;	PORTB A/D Enable bit
  2197                           ;	PBADEN = OFF, PORTB<4:0> pins are configured as digital I/O on Reset
  2198                           ;	Low-Power Timer 1 Oscillator Enable bit
  2199                           ;	LPT1OSC = 0x0, unprogrammed default
  2200                           ;	MCLR Pin Enable bit
  2201                           ;	MCLRE = 0x1, unprogrammed default
  2202   300005                     	org	3145733
  2203   300005  81                 	db	129
  2204                           
  2205                           ;Config register CONFIG4L @ 0x300006
  2206                           ;	Stack Full/Underflow Reset Enable bit
  2207                           ;	STVREN = 0x1, unprogrammed default
  2208                           ;	Single-Supply ICSP Enable bit
  2209                           ;	LVP = OFF, Single-Supply ICSP disabled
  2210                           ;	Dedicated In-Circuit Debug/Programming Port (ICPORT) Enable bit
  2211                           ;	ICPRT = 0x0, unprogrammed default
  2212                           ;	Extended Instruction Set Enable bit
  2213                           ;	XINST = 0x0, unprogrammed default
  2214                           ;	Background Debugger Enable bit
  2215                           ;	DEBUG = 0x1, unprogrammed default
  2216   300006                     	org	3145734
  2217   300006  81                 	db	129
  2218                           
  2219                           ; Padding undefined space
  2220   300007                     	org	3145735
  2221   300007  FF                 	db	255
  2222                           
  2223                           ;Config register CONFIG5L @ 0x300008
  2224                           ;	unspecified, using default values
  2225                           ;	Code Protection bit
  2226                           ;	CP0 = 0x1, unprogrammed default
  2227                           ;	Code Protection bit
  2228                           ;	CP1 = 0x1, unprogrammed default
  2229                           ;	Code Protection bit
  2230                           ;	CP2 = 0x1, unprogrammed default
  2231                           ;	Code Protection bit
  2232                           ;	CP3 = 0x1, unprogrammed default
  2233   300008                     	org	3145736
  2234   300008  0F                 	db	15
  2235                           
  2236                           ;Config register CONFIG5H @ 0x300009
  2237                           ;	unspecified, using default values
  2238                           ;	Boot Block Code Protection bit
  2239                           ;	CPB = 0x1, unprogrammed default
  2240                           ;	Data EEPROM Code Protection bit
  2241                           ;	CPD = 0x1, unprogrammed default
  2242   300009                     	org	3145737
  2243   300009  C0                 	db	192
  2244                           
  2245                           ;Config register CONFIG6L @ 0x30000A
  2246                           ;	unspecified, using default values
  2247                           ;	Write Protection bit
  2248                           ;	WRT0 = 0x1, unprogrammed default
  2249                           ;	Write Protection bit
  2250                           ;	WRT1 = 0x1, unprogrammed default
  2251                           ;	Write Protection bit
  2252                           ;	WRT2 = 0x1, unprogrammed default
  2253                           ;	Write Protection bit
  2254                           ;	WRT3 = 0x1, unprogrammed default
  2255   30000A                     	org	3145738
  2256   30000A  0F                 	db	15
  2257                           
  2258                           ;Config register CONFIG6H @ 0x30000B
  2259                           ;	unspecified, using default values
  2260                           ;	Configuration Register Write Protection bit
  2261                           ;	WRTC = 0x1, unprogrammed default
  2262                           ;	Boot Block Write Protection bit
  2263                           ;	WRTB = 0x1, unprogrammed default
  2264                           ;	Data EEPROM Write Protection bit
  2265                           ;	WRTD = 0x1, unprogrammed default
  2266   30000B                     	org	3145739
  2267   30000B  E0                 	db	224
  2268                           
  2269                           ;Config register CONFIG7L @ 0x30000C
  2270                           ;	unspecified, using default values
  2271                           ;	Table Read Protection bit
  2272                           ;	EBTR0 = 0x1, unprogrammed default
  2273                           ;	Table Read Protection bit
  2274                           ;	EBTR1 = 0x1, unprogrammed default
  2275                           ;	Table Read Protection bit
  2276                           ;	EBTR2 = 0x1, unprogrammed default
  2277                           ;	Table Read Protection bit
  2278                           ;	EBTR3 = 0x1, unprogrammed default
  2279   30000C                     	org	3145740
  2280   30000C  0F                 	db	15
  2281                           
  2282                           ;Config register CONFIG7H @ 0x30000D
  2283                           ;	unspecified, using default values
  2284                           ;	Boot Block Table Read Protection bit
  2285                           ;	EBTRB = 0x1, unprogrammed default
  2286   30000D                     	org	3145741
  2287   30000D  40                 	db	64
  2288                           tosu	equ	0xFFF
  2289                           tosh	equ	0xFFE
  2290                           tosl	equ	0xFFD
  2291                           stkptr	equ	0xFFC
  2292                           pclatu	equ	0xFFB
  2293                           pclath	equ	0xFFA
  2294                           pcl	equ	0xFF9
  2295                           tblptru	equ	0xFF8
  2296                           tblptrh	equ	0xFF7
  2297                           tblptrl	equ	0xFF6
  2298                           tablat	equ	0xFF5
  2299                           prodh	equ	0xFF4
  2300                           prodl	equ	0xFF3
  2301                           indf0	equ	0xFEF
  2302                           postinc0	equ	0xFEE
  2303                           postdec0	equ	0xFED
  2304                           preinc0	equ	0xFEC
  2305                           plusw0	equ	0xFEB
  2306                           fsr0h	equ	0xFEA
  2307                           fsr0l	equ	0xFE9
  2308                           wreg	equ	0xFE8
  2309                           indf1	equ	0xFE7
  2310                           postinc1	equ	0xFE6
  2311                           postdec1	equ	0xFE5
  2312                           preinc1	equ	0xFE4
  2313                           plusw1	equ	0xFE3
  2314                           fsr1h	equ	0xFE2
  2315                           fsr1l	equ	0xFE1
  2316                           bsr	equ	0xFE0
  2317                           indf2	equ	0xFDF
  2318                           postinc2	equ	0xFDE
  2319                           postdec2	equ	0xFDD
  2320                           preinc2	equ	0xFDC
  2321                           plusw2	equ	0xFDB
  2322                           fsr2h	equ	0xFDA
  2323                           fsr2l	equ	0xFD9
  2324                           status	equ	0xFD8

Data Sizes:
    Strings     61
    Constant    0
    Data        2
    BSS         1
    Persistent  0
    Stack       0

Auto Spaces:
    Space          Size  Autos    Used
    COMRAM           94      8      11
    BANK0           160      0       0
    BANK1           256      0       0
    BANK2           256      0       0
    BANK3           256      0       0
    BANK4           256      0       0
    BANK5           256      0       0
    BANK6           256      0       0
    BANK7           256      0       0

Pointer List with Targets:

    putrsXLCD@buffer	PTR const unsigned char  size(1) Largest target is 17
		 -> STR_1(CODE[10]), STR_2(CODE[17]), STR_3(CODE[17]), STR_4(CODE[17]), 


Critical Paths under _main in COMRAM

    _main->_OpenXLCD
    _main->_putrsXLCD
    _putrsXLCD->_WriteDataXLCD
    _OpenXLCD->_DelayPORXLCD
    _OpenXLCD->_DelayXLCD
    _OpenXLCD->_SetDDRamAddr
    _OpenXLCD->_WriteCmdXLCD

Critical Paths under _ISR_Baixa_Prioridade in COMRAM

    None.

Critical Paths under _ISR_Alta_Prioridade in COMRAM

    None.

Critical Paths under _main in BANK0

    None.

Critical Paths under _ISR_Baixa_Prioridade in BANK0

    None.

Critical Paths under _ISR_Alta_Prioridade in BANK0

    None.

Critical Paths under _main in BANK1

    None.

Critical Paths under _ISR_Baixa_Prioridade in BANK1

    None.

Critical Paths under _ISR_Alta_Prioridade in BANK1

    None.

Critical Paths under _main in BANK2

    None.

Critical Paths under _ISR_Baixa_Prioridade in BANK2

    None.

Critical Paths under _ISR_Alta_Prioridade in BANK2

    None.

Critical Paths under _main in BANK3

    None.

Critical Paths under _ISR_Baixa_Prioridade in BANK3

    None.

Critical Paths under _ISR_Alta_Prioridade in BANK3

    None.

Critical Paths under _main in BANK4

    None.

Critical Paths under _ISR_Baixa_Prioridade in BANK4

    None.

Critical Paths under _ISR_Alta_Prioridade in BANK4

    None.

Critical Paths under _main in BANK5

    None.

Critical Paths under _ISR_Baixa_Prioridade in BANK5

    None.

Critical Paths under _ISR_Alta_Prioridade in BANK5

    None.

Critical Paths under _main in BANK6

    None.

Critical Paths under _ISR_Baixa_Prioridade in BANK6

    None.

Critical Paths under _ISR_Alta_Prioridade in BANK6

    None.

Critical Paths under _main in BANK7

    None.

Critical Paths under _ISR_Baixa_Prioridade in BANK7

    None.

Critical Paths under _ISR_Alta_Prioridade in BANK7

    None.

Call Graph Tables:

 ---------------------------------------------------------------------------------
 (Depth) Function   	        Calls       Base Space   Used Autos Params    Refs
 ---------------------------------------------------------------------------------
 (0) _main                                                 2     2      0     230
                                              6 COMRAM     2     2      0
                           _OpenXLCD
                       _WriteCmdXLCD
                          _putrsXLCD
 ---------------------------------------------------------------------------------
 (1) _putrsXLCD                                            1     0      1      79
                                              5 COMRAM     1     0      1
                           _BusyXLCD
                      _WriteDataXLCD
 ---------------------------------------------------------------------------------
 (2) _WriteDataXLCD                                        1     1      0      30
                                              4 COMRAM     1     1      0
                      _DelayFor18TCY
 ---------------------------------------------------------------------------------
 (1) _OpenXLCD                                             1     1      0      75
                                              5 COMRAM     1     1      0
                           _BusyXLCD
                       _DelayPORXLCD
                          _DelayXLCD
                       _SetDDRamAddr
                       _WriteCmdXLCD
 ---------------------------------------------------------------------------------
 (2) _WriteCmdXLCD                                         1     1      0      30
                                              4 COMRAM     1     1      0
                      _DelayFor18TCY
 ---------------------------------------------------------------------------------
 (2) _SetDDRamAddr                                         1     1      0      30
                                              4 COMRAM     1     1      0
                      _DelayFor18TCY
 ---------------------------------------------------------------------------------
 (2) _DelayXLCD                                            1     1      0       0
                                              4 COMRAM     1     1      0
 ---------------------------------------------------------------------------------
 (2) _DelayPORXLCD                                         1     1      0       0
                                              4 COMRAM     1     1      0
 ---------------------------------------------------------------------------------
 (2) _BusyXLCD                                             0     0      0       0
                      _DelayFor18TCY
 ---------------------------------------------------------------------------------
 (3) _DelayFor18TCY                                        0     0      0       0
 ---------------------------------------------------------------------------------
 Estimated maximum stack depth 3
 ---------------------------------------------------------------------------------
 (Depth) Function   	        Calls       Base Space   Used Autos Params    Refs
 ---------------------------------------------------------------------------------
 (4) _ISR_Baixa_Prioridade                                 3     3      0       0
                                              1 COMRAM     3     3      0
 ---------------------------------------------------------------------------------
 Estimated maximum stack depth 4
 ---------------------------------------------------------------------------------
 (Depth) Function   	        Calls       Base Space   Used Autos Params    Refs
 ---------------------------------------------------------------------------------
 (5) _ISR_Alta_Prioridade                                  1     1      0       0
                                              0 COMRAM     1     1      0
 ---------------------------------------------------------------------------------
 Estimated maximum stack depth 5
 ---------------------------------------------------------------------------------

 Call Graph Graphs:

 _main (ROOT)
   _OpenXLCD
     _BusyXLCD
       _DelayFor18TCY
     _DelayPORXLCD
     _DelayXLCD
     _SetDDRamAddr
       _DelayFor18TCY
     _WriteCmdXLCD
       _DelayFor18TCY
   _WriteCmdXLCD
   _putrsXLCD
     _BusyXLCD
     _WriteDataXLCD
       _DelayFor18TCY

 _ISR_Baixa_Prioridade (ROOT)

 _ISR_Alta_Prioridade (ROOT)

Address spaces:
Name               Size   Autos  Total    Usage
BIGRAM            2047      0       0      0.0%
BITBANK7           256      0       0      0.0%
BANK7              256      0       0      0.0%
BITBANK6           256      0       0      0.0%
BANK6              256      0       0      0.0%
BITBANK5           256      0       0      0.0%
BANK5              256      0       0      0.0%
BITBANK4           256      0       0      0.0%
BANK4              256      0       0      0.0%
BITBANK3           256      0       0      0.0%
BANK3              256      0       0      0.0%
BITBANK2           256      0       0      0.0%
BANK2              256      0       0      0.0%
BITBANK1           256      0       0      0.0%
BANK1              256      0       0      0.0%
BITBANK0           160      0       0      0.0%
BANK0              160      0       0      0.0%
BITCOMRAM           94      0       0      0.0%
COMRAM              94      8      11     11.7%
BITBIGSFRh          66      0       0      0.0%
BITBIGSFRlh         40      0       0      0.0%
BITBIGSFRlll        32      0       0      0.0%
BITBIGSFRllh        19      0       0      0.0%
STACK                0      0       0      0.0%
DATA                 0      0      11      0.0%


Microchip Technology PIC18 Macro Assembler V3.10 build 20250813170317 
Symbol Table                                                                                   Wed Jun 24 08:39:19 2026

                           _h 000B                             _m 000C                            l22 0BF8  
                          l25 0BE8                            l19 0C02                            l55 0B32  
                          l72 0B70                            l49 0A1A                            l58 0AE0  
                          l90 0AAC                            l59 0AF2                            l69 0BAE  
                          u10 0ACA                            u11 0AC6                            u20 097E  
                          u21 097A                            u30 0992                            u31 098E  
                          u40 09AC                            u41 09A8                            u50 09C6  
                          u51 09C2                            u60 09E0                            u61 09DC  
                          u70 09FA                            u71 09F6                            u80 0A14  
                          u81 0A10                            bsr 0FE0                           l145 08B0  
                         l148 0902                           l980 0BD8                           l990 0B8A  
                         l982 0B74                           l976 0BFA                           l992 0B8C  
                         l984 0B82                           l978 0BEA                           l994 0B90  
                         l986 0B84                           l996 0B9E                           l988 0B86  
                         l998 0BA2                           u200 0A7E                           u201 0A7A  
                         u210 0AAC                           u211 0AA8                           u220 0926  
                         u221 0922                           u237 0898                           _PR2 0FCB  
                         u247 090A                           u257 0BDE                           u267 0BF0  
                         u277 0BFC                           wreg 0FE8                          l1000 0BA4  
                        l1010 0AB6                          l1002 0BA8                          l1020 0AD6  
                        l1012 0ABC                          l1100 0940                          l1030 0AE2  
                        l1022 0AD8                          l1014 0ACA                          l1006 0AAE  
                        l1110 0952                          l1102 0942                          l1032 0AE6  
                        l1024 0ADA                          l1016 0ACC                          l1008 0AB2  
                        l1120 096A                          l1112 0956                          l1104 0944  
                        l1034 0AEC                          l1018 0AD0                          l1050 0B0E  
                        l1042 0AF6                          l1130 09B2                          l1122 097E  
                        l1114 095C                          l1106 0948                          l1036 0AEE  
                        l1060 0B28                          l1052 0B10                          l1044 0B06  
                        l1140 09FA                          l1132 09C6                          l1124 0992  
                        l1116 0960                          l1108 094E                          l1038 0AF0  
                        l1062 0B2C                          l1054 0B14                          l1046 0B08  
                        l1142 0A00                          l1134 09CC                          l1126 0998  
                        l1118 0964                          l1070 0B46                          l1056 0B22  
                        l1048 0B0A                          l1144 0A14                          l1136 09E0  
                        l1128 09AC                          l1080 0B60                          l1072 0B48  
                        l1400 0874                          l1058 0B26                          l1138 09E6  
                        l1090 0930                          l1082 0B64                          l1074 0B4C  
                        l1066 0B36                          l1410 087E                          l1402 0876  
                        l1092 0938                          l1084 0B66                          l1076 0B4E  
                        l1068 0B44                          l1420 088C                          l1412 0880  
                        l1404 0878                          l1094 093A                          l1086 0B6A  
                        l1078 0B52                          l1430 08B4                          l1422 0892  
                        l1414 0882                          l1406 087A                          l1096 093C  
                        l1360 0A7E                          l1432 08B6                          l1424 08A2  
                        l1416 0884                          l1408 087C                          l1098 093E  
                        l1362 0A8E                          l1450 0914                          l1434 08C0  
                        l1442 08E4                          l1426 08A8                          l1418 0886  
                        l1370 084A                          l1364 0A90                          l1356 0A66  
                        l1436 08CC                          l1428 08B2                          l1380 0854  
                        l1372 084C                          l1358 0A6A                          l1438 08D8  
                        l1390 086A                          l1382 0856                          l1374 084E  
                        l1366 0840                          l1448 0904                          l1392 086C  
                        l1384 0858                          l1376 0850                          l1368 0848  
                        l1394 086E                          l1386 085A                          l1378 0852  
                        l1396 0870                          l1388 0860                          l1398 0872  
                        STR_1 0834                          STR_2 0801                          STR_3 0823  
                        STR_4 0812                          _main 0840                          _menu 000A  
                        btemp 0001                          start 0088                  ___param_bank 0000  
                _WriteCmdXLCD 0B72                 ?_SetDDRamAddr 0002                         ?_main 0002  
                       _CMCON 0FB4                         _T2CON 0FCA                         i1l190 0078  
                       i1l185 0052                         i2l180 0A62                         i2l177 0A60  
                       _PORTD 0F83                         _TRISD 0F95                         _TRISE 0F96  
                       btemp0 0001                         btemp1 0002                         tablat 0FF5  
                       status 0FD8               __initialization 0BB0                  __end_of_main 092E  
            __end_of_BusyXLCD 0AF4                ??_SetDDRamAddr 0006              __end_of_OpenXLCD 0A1C  
                      ??_main 0008                 __activetblptr 0002                 _WriteDataXLCD 0B34  
                      _ADCON1 0FC1                        _CCPR1L 0FBE                        i1l1340 0034  
                      i1l1350 0062                        i1l1342 0036                        i1l1352 0072  
                      i1l1344 0048                        i1l1354 0076                        i1l1346 004C  
                      i1l1338 0026                        i1l1348 0060                        i2l1330 0A1E  
                      i2l1332 0A20                        i2l1336 0A42                  _DelayPORXLCD 0BEA  
                      isa$std 0001                ?_WriteDataXLCD 0002                  __pdataCOMRAM 000A  
                __mediumconst 0800                        tblptrh 0FF7                        tblptrl 0FF6  
                      tblptru 0FF8             __end_of_DelayXLCD 0BEA                    __accesstop 0060  
     __end_of__initialization 0BCA                 ___rparam_used 0001                __pcstackCOMRAM 0002  
                   ?_BusyXLCD 0002               WriteCmdXLCD@cmd 0006          __end_of_SetDDRamAddr 0B34  
                   ?_OpenXLCD 0002             WriteDataXLCD@data 0006                       _CCP1CON 0FBD  
             ??_WriteDataXLCD 0006                       i1u16_20 0034                       i1u16_21 0030  
                     i1u17_20 0048                       i1u17_21 0044                       i1u18_20 0060  
                     i1u18_21 005C                       i1u19_20 0072                       i1u19_21 006E  
                     i2u14_40 0A32                       i2u14_41 0A2A                       i2u15_48 0A34  
__end_of_ISR_Baixa_Prioridade 0088                    ??_BusyXLCD 0006                    ??_OpenXLCD 0007  
                     __Hparam 0000                       __Lparam 0000                 _DelayFor18TCY 0BFA  
                __psmallconst 0800                       __pcinit 0BB0               putrsXLCD@buffer 0007  
                     __ramtop 0800                       __ptext0 0840                       __ptext1 0A66  
                     __ptext2 0B34                       __ptext3 092E                       __ptext4 0B72  
                     __ptext5 0AF4                       __ptext6 0BD8                       __ptext7 0BEA  
                     __ptext8 0AAE                       __ptext9 0BFA           _ISR_Alta_Prioridade 0008  
              __pintcode_body 0A1C          end_of_initialization 0BCA                 __Lmediumconst 0000  
                     int_func 0A1C          ?_ISR_Alta_Prioridade 0002                ?_DelayFor18TCY 0002  
           __end_of_putrsXLCD 0AAE                     _PORTAbits 0F80                     _TRISAbits 0F92  
                   _TRISBbits 0F93                     _TRISCbits 0F94                     _TRISEbits 0F96  
       ??_ISR_Alta_Prioridade 0002                   _CCP1CONbits 0FBD                    main@atraso 0009  
                   _DelayXLCD 0BD8          _ISR_Baixa_Prioridade 0018                 __pidataCOMRAM 0C04  
                _SetDDRamAddr 0AF4            SetDDRamAddr@DDaddr 0006           start_initialization 0BB0  
                  ?_DelayXLCD 0002               ??_DelayFor18TCY 0006         ?_ISR_Baixa_Prioridade 0002  
               ?_WriteCmdXLCD 0002                   __pbssCOMRAM 000C                     __pintcode 0008  
              ??_WriteCmdXLCD 0006                   __pintcodelo 0018         __end_of_WriteDataXLCD 0B72  
                 __smallconst 0800                      _LATCbits 0F8B                      _LATEbits 0F8D  
                 ??_DelayXLCD 0006                 ?_DelayPORXLCD 0002                      _PIR1bits 0F9E  
             OpenXLCD@lcdtype 0007        ??_ISR_Baixa_Prioridade 0003                      _RCONbits 0FD0  
                   _putrsXLCD 0A66                   _INTCON2bits 0FF1                   _INTCON3bits 0FF0  
                    _BusyXLCD 0AAE                ??_DelayPORXLCD 0006                      _OpenXLCD 092E  
                    __Hrparam 0000                      __Lrparam 0000                    ?_putrsXLCD 0007  
 __end_of_ISR_Alta_Prioridade 0A66          __end_of_WriteCmdXLCD 0BB0                      isa$xinst 0000  
                    int$flags 0001                    _INTCONbits 0FF2                      intlevel1 0000  
                    intlevel2 0000         __end_of_DelayFor18TCY 0C04          __end_of_DelayPORXLCD 0BFA  
                 ??_putrsXLCD 0008  
